BL51 BANKED LINKER/LOCATER V6.22                                                        04/06/2017  18:30:06  PAGE 1


BL51 BANKED LINKER/LOCATER V6.22, INVOKED BY:
E:\KEILC\C51\BIN\BL51.EXE .\Objects\Init.obj, .\Objects\Interrupt.obj, .\Objects\main.obj, .\Objects\AS5048.obj, .\Objec
>> ts\FU68xx_CTimer.obj, .\Objects\FU68xx_SPI.obj, .\Objects\FU68xx_UART.obj, .\Objects\FU68xx_ADC.obj, .\Objects\FU68xx
>> _FOC.obj, .\Objects\API_RGB.obj, .\Objects\API_ANO_TC.obj, .\Objects\API_Delay.obj TO .\Objects\Test PRINT (.\Listing
>> s\Test.m51) RAMSIZE (256)


MEMORY MODEL: SMALL


INPUT MODULES INCLUDED:
  .\Objects\Init.obj (INIT)
  .\Objects\Interrupt.obj (INTERRUPT)
  .\Objects\main.obj (MAIN)
  .\Objects\AS5048.obj (AS5048)
  .\Objects\FU68xx_CTimer.obj (FU68XX_CTIMER)
  .\Objects\FU68xx_SPI.obj (FU68XX_SPI)
  .\Objects\FU68xx_UART.obj (FU68XX_UART)
  .\Objects\FU68xx_ADC.obj (FU68XX_ADC)
  .\Objects\FU68xx_FOC.obj (FU68XX_FOC)
  .\Objects\API_RGB.obj (API_RGB)
  .\Objects\API_ANO_TC.obj (API_ANO_TC)
  .\Objects\API_Delay.obj (API_DELAY)
  E:\KEILC\C51\LIB\C51S.LIB (?C_STARTUP)
  E:\KEILC\C51\LIB\C51S.LIB (?C?COPY)
  E:\KEILC\C51\LIB\C51S.LIB (?C?CLDPTR)
  E:\KEILC\C51\LIB\C51S.LIB (?C?CSTPTR)
  E:\KEILC\C51\LIB\C51S.LIB (?C?IMUL)
  E:\KEILC\C51\LIB\C51S.LIB (?C?UIDIV)
  E:\KEILC\C51\LIB\C51S.LIB (?C?ISTPTR)
  E:\KEILC\C51\LIB\C51S.LIB (?C?ULDIV)
  E:\KEILC\C51\LIB\C51S.LIB (?C?SLSHR)
  E:\KEILC\C51\LIB\C51S.LIB (?C?MEMSET)
  E:\KEILC\C51\LIB\C51S.LIB (?C_INIT)


LINK MAP OF MODULE:  .\Objects\Test (INIT)


            TYPE    BASE      LENGTH    RELOCATION   SEGMENT NAME
            -----------------------------------------------------

            * * * * * * *   D A T A   M E M O R Y   * * * * * * *
            REG     0000H     0008H     ABSOLUTE     "REG BANK 0"
            DATA    0008H     000DH     UNIT         _DATA_GROUP_
            DATA    0015H     000BH     UNIT         ?DT?API_ANO_TC
            BIT     0020H.0   0000H.3   UNIT         ?BI?INTERRUPT
            BIT     0020H.3   0000H.2   UNIT         _BIT_GROUP_
            BIT     0020H.5   0000H.1   UNIT         ?BI?_SWITCH_CTIMER?FU68XX_CTIMER
                    0020H.6   0000H.2                *** GAP ***
            DATA    0021H     000CH     UNIT         ?DT?CALIBRATE_FOC?FU68XX_FOC
            DATA    002DH     0007H     UNIT         ?DT?_READ_AS5048?AS5048
            DATA    0034H     0007H     UNIT         ?DT?_SENDRECEIVE_BYTES_SPI?FU68XX_SPI
            DATA    003BH     0004H     UNIT         ?DT?_WRITE_AS5048?AS5048
            DATA    003FH     0002H     UNIT         ?DT?AS5048
            DATA    0041H     0001H     UNIT         ?DT?INTERRUPT
            IDATA   0042H     0001H     UNIT         ?STACK

BL51 BANKED LINKER/LOCATER V6.22                                                      04/06/2017  18:30:06  PAGE 2


            * * * * * * *   C O D E   M E M O R Y   * * * * * * *
            CODE    0000H     0003H     ABSOLUTE     
            CODE    0003H     0044H     UNIT         ?PR?_INIT_ADC?FU68XX_ADC
            CODE    0047H     0004H     UNIT         ?CO?FU68XX_CTIMER
            CODE    004BH     0003H     ABSOLUTE     
            CODE    004EH     02B5H     UNIT         ?C?LIB_CODE
            CODE    0303H     00B6H     UNIT         ?PR?CALIBRATE_FOC?FU68XX_FOC
            CODE    03B9H     00ABH     UNIT         ?PR?INIT_FOC?FU68XX_FOC
            CODE    0464H     008CH     UNIT         ?PR?_READ_AS5048?AS5048
            CODE    04F0H     008CH     UNIT         ?C_C51STARTUP
            CODE    057CH     0086H     UNIT         ?PR?_WRITE_AS5048?AS5048
            CODE    0602H     0081H     UNIT         ?PR?_INIT_CTIMER?FU68XX_CTIMER
            CODE    0683H     0071H     UNIT         ?PR?MAIN?MAIN
            CODE    06F4H     0062H     UNIT         ?PR?INIT?INIT
            CODE    0756H     004DH     UNIT         ?PR?_SENDRECEIVE_BYTES_SPI?FU68XX_SPI
            CODE    07A3H     003BH     UNIT         ?PR?_SWITCH_CTIMER?FU68XX_CTIMER
            CODE    07DEH     003BH     UNIT         ?PR?_INIT_SPI?FU68XX_SPI
            CODE    0819H     003AH     UNIT         ?PR?_INIT_UART?FU68XX_UART
            CODE    0853H     0039H     UNIT         ?PR?_PARITY16?AS5048
            CODE    088CH     0035H     UNIT         ?PR?READ_ANG_AS5048?AS5048
            CODE    08C1H     0031H     UNIT         ?PR?IRQ_CTIMER23?INTERRUPT
            CODE    08F2H     002FH     UNIT         ?PR?SEND_ANO_PACKAGE?API_ANO_TC
            CODE    0921H     0028H     UNIT         ?PR?_RESET_ANO_PACKAGE?API_ANO_TC
            CODE    0949H     0027H     UNIT         ?PR?_SENDRECEIVE_DBYTE_SPI?FU68XX_SPI
            CODE    0970H     0021H     UNIT         ?PR?_MS_DELAY?API_DELAY
            CODE    0991H     001CH     UNIT         ?PR?_SEND_UART?FU68XX_UART
            CODE    09ADH     001AH     UNIT         ?PR?_LOAD_ANO_PACKAGE?API_ANO_TC
            CODE    09C7H     0012H     UNIT         ?PR?_SENDRECEIVE_BYTE_SPI?FU68XX_SPI
            CODE    09D9H     0010H     UNIT         ?PR?INIT_RGB?API_RGB
            CODE    09E9H     0008H     UNIT         ?PR?_SEND_BYTE_UART?FU68XX_UART
            CODE    09F1H     0008H     UNIT         ?CO?FU68XX_FOC
            CODE    09F9H     0007H     UNIT         ?C_INITSEG



OVERLAY MAP OF MODULE:   .\Objects\Test (INIT)


SEGMENT                                          BIT_GROUP          DATA_GROUP 
  +--> CALLED SEGMENT                         START    LENGTH     START    LENGTH
---------------------------------------------------------------------------------
?C_C51STARTUP                                 -----    -----      -----    -----
  +--> ?PR?MAIN?MAIN
  +--> ?C_INITSEG

?PR?MAIN?MAIN                                 0020H.3  0000H.1    0008H    0006H
  +--> ?PR?INIT?INIT
  +--> ?PR?READ_ANG_AS5048?AS5048
  +--> ?PR?_LOAD_ANO_PACKAGE?API_ANO_TC
  +--> ?PR?SEND_ANO_PACKAGE?API_ANO_TC
  +--> ?PR?_RESET_ANO_PACKAGE?API_ANO_TC

?PR?INIT?INIT                                 -----    -----      -----    -----
  +--> ?PR?INIT_RGB?API_RGB
  +--> ?PR?_INIT_SPI?FU68XX_SPI
  +--> ?PR?_INIT_CTIMER?FU68XX_CTIMER
  +--> ?PR?_INIT_UART?FU68XX_UART
BL51 BANKED LINKER/LOCATER V6.22                                                      04/06/2017  18:30:06  PAGE 3


  +--> ?PR?INIT_FOC?FU68XX_FOC
  +--> ?PR?_RESET_ANO_PACKAGE?API_ANO_TC
  +--> ?PR?_SENDRECEIVE_DBYTE_SPI?FU68XX_SPI

?PR?_INIT_SPI?FU68XX_SPI                      0020H.4  0000H.1    000EH    0006H

?PR?_INIT_CTIMER?FU68XX_CTIMER                -----    -----      000EH    0007H
  +--> ?CO?FU68XX_CTIMER

?PR?_INIT_UART?FU68XX_UART                    0020H.4  0000H.1    000EH    0006H

?PR?INIT_FOC?FU68XX_FOC                       -----    -----      -----    -----
  +--> ?PR?_MS_DELAY?API_DELAY

?PR?_RESET_ANO_PACKAGE?API_ANO_TC             -----    -----      000EH    0002H

?PR?READ_ANG_AS5048?AS5048                    -----    -----      -----    -----
  +--> ?PR?_SENDRECEIVE_DBYTE_SPI?FU68XX_SPI

?PR?SEND_ANO_PACKAGE?API_ANO_TC               -----    -----      -----    -----
  +--> ?PR?_SEND_BYTE_UART?FU68XX_UART



SYMBOL TABLE OF MODULE:  .\Objects\Test (INIT)

  VALUE           TYPE          NAME
  ----------------------------------

  -------         MODULE        INIT
  C:0000H         SYMBOL        _ICE_DUMMY_
  D:0080H         PUBLIC        P0
  D:0090H         PUBLIC        P1
  D:00A0H         PUBLIC        P2
  D:00B0H         PUBLIC        P3
  B:00A8H.7       PUBLIC        EA
  C:06F4H         PUBLIC        Init
  D:00B8H         PUBLIC        IP0
  D:00C0H         PUBLIC        IP1
  D:00C8H         PUBLIC        IP2
  D:00D8H         PUBLIC        IP3
  D:00D0H         PUBLIC        PSW
  -------         PROC          INIT
  C:06F4H         LINE#         35
  C:06F4H         LINE#         36
  C:06F4H         LINE#         37
  C:06F7H         LINE#         38
  C:070CH         LINE#         39
  C:0720H         LINE#         40
  C:0735H         LINE#         41
  C:0738H         LINE#         43
  C:073AH         LINE#         45
  C:0741H         LINE#         47
  C:0748H         LINE#         48
  C:074EH         LINE#         49
  C:0755H         LINE#         51
  -------         ENDPROC       INIT
BL51 BANKED LINKER/LOCATER V6.22                                                      04/06/2017  18:30:06  PAGE 4


  -------         ENDMOD        INIT

  -------         MODULE        INTERRUPT
  C:0000H         SYMBOL        _ICE_DUMMY_
  D:0080H         PUBLIC        P0
  D:0090H         PUBLIC        P1
  D:00A0H         PUBLIC        P2
  D:00B0H         PUBLIC        P3
  B:0020H.0       PUBLIC        time500ms
  B:00B0H.6       PUBLIC        P36
  C:08C1H         PUBLIC        Irq_CTimer23
  D:00A9H         PUBLIC        TIM2_CR1
  B:0020H.1       PUBLIC        time2ms
  D:00B8H         PUBLIC        IP0
  D:00C0H         PUBLIC        IP1
  D:00C8H         PUBLIC        IP2
  D:00D8H         PUBLIC        IP3
  B:0020H.2       PUBLIC        time10ms
  D:00D0H         PUBLIC        PSW
  -------         PROC          IRQ_CTIMER23
  -------         DO            
  D:0041H         SYMBOL        TimeCount
  -------         ENDDO         
  C:08C1H         LINE#         39
  C:08C7H         LINE#         43
  C:08CCH         LINE#         44
  C:08CCH         LINE#         45
  C:08CEH         LINE#         46
  C:08D0H         LINE#         48
  C:08DCH         LINE#         50
  C:08E1H         LINE#         51
  C:08E1H         LINE#         52
  C:08E3H         LINE#         53
  C:08E6H         LINE#         54
  C:08E8H         LINE#         55
  C:08E8H         LINE#         58
  C:08EBH         LINE#         59
  C:08EBH         LINE#         60
  -------         ENDPROC       IRQ_CTIMER23
  -------         ENDMOD        INTERRUPT

  -------         MODULE        MAIN
  C:0000H         SYMBOL        _ICE_DUMMY_
  D:0080H         PUBLIC        P0
  D:0090H         PUBLIC        P1
  D:00A0H         PUBLIC        P2
  D:00B0H         PUBLIC        P3
  C:0683H         PUBLIC        main
  B:00B0H.7       PUBLIC        P37
  D:00B8H         PUBLIC        IP0
  D:00C0H         PUBLIC        IP1
  D:00C8H         PUBLIC        IP2
  D:00D8H         PUBLIC        IP3
  D:00D0H         PUBLIC        PSW
  -------         PROC          MAIN
  -------         DO            
  B:0020H.3       SYMBOL        main2ms
BL51 BANKED LINKER/LOCATER V6.22                                                      04/06/2017  18:30:06  PAGE 5


  D:0008H         SYMBOL        DatLast
  D:000AH         SYMBOL        DatOut
  D:000CH         SYMBOL        i
  -------         ENDDO         
  C:0683H         LINE#         35
  C:0683H         LINE#         36
  C:0683H         LINE#         40
  C:0688H         LINE#         42
  C:068BH         LINE#         44
  C:068BH         LINE#         45
  C:068BH         LINE#         46
  C:068FH         LINE#         47
  C:0692H         LINE#         48
  C:0692H         LINE#         49
  C:0694H         LINE#         51
  C:0697H         LINE#         52
  C:06A3H         LINE#         53
  C:06A9H         LINE#         55
  C:06ABH         LINE#         57
  C:06C1H         LINE#         58
  C:06CBH         LINE#         61
  C:06D1H         LINE#         62
  C:06D6H         LINE#         63
  C:06DFH         LINE#         64
  C:06E4H         LINE#         66
  C:06E9H         LINE#         67
  C:06F0H         LINE#         69
  C:06F2H         LINE#         70
  C:06F2H         LINE#         71
  -------         ENDPROC       MAIN
  -------         ENDMOD        MAIN

  -------         MODULE        AS5048
  C:0000H         SYMBOL        _ICE_DUMMY_
  D:0080H         PUBLIC        P0
  D:0090H         PUBLIC        P1
  D:00A0H         PUBLIC        P2
  D:00B0H         PUBLIC        P3
  D:003FH         PUBLIC        Angle_AS5048
  C:0464H         PUBLIC        _Read_AS5048
  D:00B8H         PUBLIC        IP0
  D:00C0H         PUBLIC        IP1
  D:00C8H         PUBLIC        IP2
  D:00D8H         PUBLIC        IP3
  C:057CH         PUBLIC        _Write_AS5048
  C:0853H         SYMBOL        _Parity16
  D:00D0H         PUBLIC        PSW
  C:088CH         PUBLIC        Read_ANG_AS5048
  -------         PROC          _PARITY16
  D:0006H         SYMBOL        Dat
  -------         DO            
  D:0004H         SYMBOL        tmp
  -------         ENDDO         
  C:0853H         LINE#         39
  C:0853H         LINE#         40
  C:0853H         LINE#         41
  C:0859H         LINE#         43
BL51 BANKED LINKER/LOCATER V6.22                                                      04/06/2017  18:30:06  PAGE 6


  C:0863H         LINE#         44
  C:0874H         LINE#         45
  C:0886H         LINE#         46
  C:0889H         LINE#         48
  C:088BH         LINE#         49
  -------         ENDPROC       _PARITY16
  -------         PROC          _WRITE_AS5048
  D:0006H         SYMBOL        Addr
  D:0002H         SYMBOL        Dat
  -------         DO            
  D:003BH         SYMBOL        WriteAddr
  D:003DH         SYMBOL        WriteDat
  -------         ENDDO         
  C:057CH         LINE#         61
  C:0580H         LINE#         62
  C:0580H         LINE#         66
  C:058EH         LINE#         67
  C:05ACH         LINE#         68
  C:05BCH         LINE#         69
  C:05DAH         LINE#         71
  C:05E1H         LINE#         72
  C:05E8H         LINE#         73
  C:05EFH         LINE#         74
  C:05F3H         LINE#         75
  C:05FAH         LINE#         76
  C:0601H         LINE#         77
  -------         ENDPROC       _WRITE_AS5048
  -------         PROC          _READ_AS5048
  D:0006H         SYMBOL        Addr
  D:002DH         SYMBOL        Dat
  -------         DO            
  D:0030H         SYMBOL        WriteDat
  D:0032H         SYMBOL        ReadDat
  -------         ENDDO         
  C:0464H         LINE#         90
  C:046AH         LINE#         91
  C:046AH         LINE#         95
  C:0478H         LINE#         96
  C:047BH         LINE#         97
  C:0499H         LINE#         99
  C:04A0H         LINE#         100
  C:04A7H         LINE#         101
  C:04AEH         LINE#         102
  C:04B2H         LINE#         103
  C:04BCH         LINE#         104
  C:04C3H         LINE#         106
  C:04DBH         LINE#         107
  C:04DBH         LINE#         108
  C:04ECH         LINE#         109
  C:04EEH         LINE#         110
  C:04EEH         LINE#         112
  C:04EFH         LINE#         113
  -------         ENDPROC       _READ_AS5048
  -------         PROC          READ_ANG_AS5048
  C:088CH         LINE#         124
  C:088CH         LINE#         125
  C:088CH         LINE#         126
BL51 BANKED LINKER/LOCATER V6.22                                                      04/06/2017  18:30:06  PAGE 7


  C:0893H         LINE#         127
  C:089AH         LINE#         128
  C:08A1H         LINE#         129
  C:08A5H         LINE#         130
  C:08B9H         LINE#         131
  C:08C0H         LINE#         132
  -------         ENDPROC       READ_ANG_AS5048
  -------         ENDMOD        AS5048

  -------         MODULE        FU68XX_CTIMER
  C:0000H         SYMBOL        _ICE_DUMMY_
  D:0080H         PUBLIC        P0
  D:0090H         PUBLIC        P1
  D:00A0H         PUBLIC        P2
  D:00B0H         PUBLIC        P3
  D:00ACH         PUBLIC        TIM2_DR
  D:00A4H         PUBLIC        TIM3_DR
  D:0094H         PUBLIC        TIM4_DR
  D:008CH         PUBLIC        TIM5_DR
  C:0047H         PUBLIC        phsel
  C:07A3H         PUBLIC        _switch_CTimer
  C:0602H         PUBLIC        _Init_CTimer
  D:00A1H         PUBLIC        TIM2_CR0
  D:009CH         PUBLIC        TIM3_CR0
  D:00A9H         PUBLIC        TIM2_CR1
  D:009EH         PUBLIC        TIM4_CR0
  D:009DH         PUBLIC        TIM3_CR1
  D:0089H         PUBLIC        TIM5_CR0
  D:009FH         PUBLIC        TIM4_CR1
  D:0091H         PUBLIC        TIM5_CR1
  D:00AEH         PUBLIC        TIM2_ARR
  D:00A6H         PUBLIC        TIM3_ARR
  D:0096H         PUBLIC        TIM4_ARR
  D:008EH         PUBLIC        TIM5_ARR
  -------         PROC          _INIT_CTIMER
  D:0007H         SYMBOL        num
  D:0005H         SYMBOL        cr0
  D:0003H         SYMBOL        cr1
  D:0011H         SYMBOL        arr
  D:0013H         SYMBOL        dr
  C:0602H         LINE#         31
  C:0602H         LINE#         32
  C:0602H         LINE#         33
  C:0611H         LINE#         34
  C:0611H         LINE#         35
  C:0623H         LINE#         36
  C:0635H         LINE#         37
  C:0647H         LINE#         38
  C:0657H         LINE#         40
  C:0657H         LINE#         42
  C:066FH         LINE#         43
  C:0682H         LINE#         44
  -------         ENDPROC       _INIT_CTIMER
  -------         PROC          _SWITCH_CTIMER
  D:0007H         SYMBOL        num
  B:0020H.5       SYMBOL        sw
  C:07A3H         LINE#         56
BL51 BANKED LINKER/LOCATER V6.22                                                      04/06/2017  18:30:06  PAGE 8


  C:07A3H         LINE#         57
  C:07A3H         LINE#         58
  C:07B2H         LINE#         59
  C:07B2H         LINE#         60
  C:07B2H         LINE#         61
  C:07B9H         LINE#         62
  C:07BCH         LINE#         63
  C:07BDH         LINE#         65
  C:07BDH         LINE#         66
  C:07C4H         LINE#         67
  C:07C7H         LINE#         68
  C:07C8H         LINE#         70
  C:07C8H         LINE#         71
  C:07CFH         LINE#         72
  C:07D2H         LINE#         73
  C:07D3H         LINE#         75
  C:07D3H         LINE#         76
  C:07DAH         LINE#         77
  C:07DDH         LINE#         78
  C:07DDH         LINE#         79
  C:07DDH         LINE#         80
  -------         ENDPROC       _SWITCH_CTIMER
  -------         ENDMOD        FU68XX_CTIMER

  -------         MODULE        FU68XX_SPI
  C:0000H         SYMBOL        _ICE_DUMMY_
  D:0080H         PUBLIC        P0
  D:0090H         PUBLIC        P1
  D:00A0H         PUBLIC        P2
  D:00B0H         PUBLIC        P3
  C:0756H         PUBLIC        _SendReceive_Bytes_SPI
  C:09C7H         PUBLIC        _SendReceive_Byte_SPI
  B:00A8H.3       PUBLIC        SPI_IE
  C:0949H         PUBLIC        _SendReceive_DByte_SPI
  C:07DEH         PUBLIC        _Init_SPI
  -------         PROC          _INIT_SPI
  D:000EH         SYMBOL        Line_Mode
  D:000FH         SYMBOL        Config
  D:0010H         SYMBOL        SPEED
  B:0020H.4       SYMBOL        EnIrq
  C:07DEH         LINE#         36
  C:07E2H         LINE#         37
  C:07E2H         LINE#         38
  C:07FBH         LINE#         39
  C:0809H         LINE#         41
  C:080FH         LINE#         42
  C:0814H         LINE#         43
  C:0818H         LINE#         44
  -------         ENDPROC       _INIT_SPI
  -------         PROC          _SENDRECEIVE_BYTE_SPI
  D:0007H         SYMBOL        SendDat
  C:09C7H         LINE#         56
  C:09C7H         LINE#         57
  C:09C7H         LINE#         58
  C:09CCH         LINE#         59
  C:09D3H         LINE#         61
  C:09D8H         LINE#         62
BL51 BANKED LINKER/LOCATER V6.22                                                      04/06/2017  18:30:06  PAGE 9


  -------         ENDPROC       _SENDRECEIVE_BYTE_SPI
  -------         PROC          _SENDRECEIVE_DBYTE_SPI
  D:0004H         SYMBOL        SendDat
  -------         DO            
  D:0006H         SYMBOL        tmp
  -------         ENDDO         
  C:0949H         LINE#         74
  C:094DH         LINE#         75
  C:094DH         LINE#         78
  C:0952H         LINE#         79
  C:0959H         LINE#         80
  C:0960H         LINE#         82
  C:0962H         LINE#         83
  C:0969H         LINE#         84
  C:096FH         LINE#         86
  C:096FH         LINE#         87
  -------         ENDPROC       _SENDRECEIVE_DBYTE_SPI
  -------         PROC          _SENDRECEIVE_BYTES_SPI
  D:0034H         SYMBOL        SendDat
  D:0037H         SYMBOL        ReceiveDat
  D:003AH         SYMBOL        len
  C:0756H         LINE#         100
  C:075CH         LINE#         101
  C:075CH         LINE#         102
  C:0763H         LINE#         103
  C:0763H         LINE#         104
  C:0770H         LINE#         105
  C:077BH         LINE#         106
  C:0788H         LINE#         108
  C:0795H         LINE#         109
  C:07A0H         LINE#         110
  C:07A2H         LINE#         111
  -------         ENDPROC       _SENDRECEIVE_BYTES_SPI
  -------         ENDMOD        FU68XX_SPI

  -------         MODULE        FU68XX_UART
  C:0000H         SYMBOL        _ICE_DUMMY_
  D:0080H         PUBLIC        P0
  D:0090H         PUBLIC        P1
  D:00A0H         PUBLIC        P2
  D:00B0H         PUBLIC        P3
  B:00A8H.4       PUBLIC        ES
  B:0098H.1       PUBLIC        TI
  C:09E9H         PUBLIC        _Send_Byte_UART
  C:0991H         PUBLIC        _Send_UART
  C:0819H         PUBLIC        _Init_UART
  D:0098H         PUBLIC        UTCR
  D:0099H         PUBLIC        UTDR
  D:009AH         PUBLIC        UTBU
  -------         PROC          _INIT_UART
  D:000EH         SYMBOL        addr
  D:0005H         SYMBOL        Config
  D:0010H         SYMBOL        bund
  B:0020H.4       SYMBOL        irq
  C:0819H         LINE#         31
  C:081BH         LINE#         32
  C:081BH         LINE#         33
BL51 BANKED LINKER/LOCATER V6.22                                                      04/06/2017  18:30:06  PAGE 10


  C:081DH         LINE#         34
  C:083BH         LINE#         35
  C:083DH         LINE#         37
  C:0841H         LINE#         39
  C:0852H         LINE#         40
  -------         ENDPROC       _INIT_UART
  -------         PROC          _SEND_UART
  D:0001H         SYMBOL        str
  D:0005H         SYMBOL        Size
  -------         DO            
  D:0007H         SYMBOL        i
  -------         ENDDO         
  C:0991H         LINE#         52
  C:0991H         LINE#         53
  C:0991H         LINE#         54
  C:0993H         LINE#         56
  C:0998H         LINE#         57
  C:0998H         LINE#         58
  C:099BH         LINE#         59
  C:09A0H         LINE#         60
  C:09A1H         LINE#         61
  C:09A8H         LINE#         62
  C:09AAH         LINE#         63
  C:09ACH         LINE#         64
  -------         ENDPROC       _SEND_UART
  -------         PROC          _SEND_BYTE_UART
  D:0007H         SYMBOL        dat
  C:09E9H         LINE#         75
  C:09E9H         LINE#         76
  C:09E9H         LINE#         77
  C:09ECH         LINE#         78
  C:09EEH         LINE#         79
  C:09F0H         LINE#         80
  -------         ENDPROC       _SEND_BYTE_UART
  -------         ENDMOD        FU68XX_UART

  -------         MODULE        FU68XX_ADC
  C:0000H         SYMBOL        _ICE_DUMMY_
  C:0003H         PUBLIC        _Init_ADC
  -------         PROC          _INIT_ADC
  D:0007H         SYMBOL        Channel
  D:0005H         SYMBOL        Time
  C:0003H         LINE#         34
  C:0003H         LINE#         35
  C:0003H         LINE#         36
  C:0015H         LINE#         37
  C:0046H         LINE#         38
  -------         ENDPROC       _INIT_ADC
  -------         ENDMOD        FU68XX_ADC

  -------         MODULE        FU68XX_FOC
  C:0000H         SYMBOL        _ICE_DUMMY_
  D:0080H         PUBLIC        P0
  D:0090H         PUBLIC        P1
  D:00A0H         PUBLIC        P2
  D:00B0H         PUBLIC        P3
  C:09F1H         SYMBOL        _?ix1000
BL51 BANKED LINKER/LOCATER V6.22                                                      04/06/2017  18:30:06  PAGE 11


  C:0303H         PUBLIC        Calibrate_FOC
  C:03B9H         PUBLIC        Init_FOC
  D:00F8H         PUBLIC        DRVOUT
  D:00E8H         PUBLIC        FOCSET0
  -------         PROC          CALIBRATE_FOC
  -------         DO            
  D:0021H         SYMBOL        Buff
  D:0029H         SYMBOL        offset
  D:0003H         SYMBOL        i
  -------         ENDDO         
  C:0303H         LINE#         26
  C:0303H         LINE#         27
  C:0303H         LINE#         28
  C:0316H         LINE#         32
  C:031DH         LINE#         33
  C:0324H         LINE#         35
  C:0326H         LINE#         36
  C:0326H         LINE#         37
  C:032DH         LINE#         38
  C:0334H         LINE#         39
  C:033BH         LINE#         41
  C:0358H         LINE#         42
  C:0372H         LINE#         43
  C:0376H         LINE#         45
  C:0387H         LINE#         46
  C:0398H         LINE#         48
  C:039EH         LINE#         49
  C:03A8H         LINE#         51
  C:03AEH         LINE#         52
  C:03B8H         LINE#         53
  -------         ENDPROC       CALIBRATE_FOC
  -------         PROC          INIT_FOC
  C:03B9H         LINE#         63
  C:03B9H         LINE#         64
  C:03B9H         LINE#         66
  C:03BFH         LINE#         67
  C:03C3H         LINE#         68
  C:03C9H         LINE#         71
  C:03D0H         LINE#         74
  C:03D6H         LINE#         77
  C:03DAH         LINE#         80
  C:03E0H         LINE#         83
  C:03E3H         LINE#         87
  C:03E9H         LINE#         92
  C:03ECH         LINE#         93
  C:03F2H         LINE#         94
  C:03F8H         LINE#         95
  C:03FCH         LINE#         96
  C:0405H         LINE#         97
  C:040BH         LINE#         99
  C:0412H         LINE#         100
  C:0416H         LINE#         101
  C:041CH         LINE#         102
  C:0420H         LINE#         103
  C:0426H         LINE#         110
  C:042FH         LINE#         111
  C:0436H         LINE#         112
BL51 BANKED LINKER/LOCATER V6.22                                                      04/06/2017  18:30:06  PAGE 12


  C:043CH         LINE#         113
  C:0440H         LINE#         114
  C:0446H         LINE#         116
  C:044CH         LINE#         119
  C:044FH         LINE#         121
  C:0455H         LINE#         122
  C:045CH         LINE#         124
  C:0463H         LINE#         125
  -------         ENDPROC       INIT_FOC
  -------         ENDMOD        FU68XX_FOC

  -------         MODULE        API_RGB
  C:0000H         SYMBOL        _ICE_DUMMY_
  D:0080H         PUBLIC        P0
  D:0090H         PUBLIC        P1
  D:00A0H         PUBLIC        P2
  D:00B0H         PUBLIC        P3
  D:00FFH         PUBLIC        P3OE
  B:00B0H.6       PUBLIC        P36
  B:00B0H.7       PUBLIC        P37
  D:00B8H         PUBLIC        IP0
  D:00C0H         PUBLIC        IP1
  D:00C8H         PUBLIC        IP2
  D:00D8H         PUBLIC        IP3
  C:09D9H         PUBLIC        Init_RGB
  D:00D0H         PUBLIC        PSW
  -------         PROC          INIT_RGB
  C:09D9H         LINE#         33
  C:09D9H         LINE#         34
  C:09D9H         LINE#         35
  C:09DCH         LINE#         36
  C:09DFH         LINE#         37
  C:09E2H         LINE#         39
  C:09E4H         LINE#         40
  C:09E6H         LINE#         41
  C:09E8H         LINE#         42
  -------         ENDPROC       INIT_RGB
  -------         ENDMOD        API_RGB

  -------         MODULE        API_ANO_TC
  C:0000H         SYMBOL        _ICE_DUMMY_
  D:0080H         PUBLIC        P0
  D:0090H         PUBLIC        P1
  D:00A0H         PUBLIC        P2
  D:00B0H         PUBLIC        P3
  D:0017H         SYMBOL        AT_B
  D:00B8H         PUBLIC        IP0
  D:00C0H         PUBLIC        IP1
  D:00C8H         PUBLIC        IP2
  D:00D8H         PUBLIC        IP3
  C:09ADH         PUBLIC        _Load_ANO_Package
  C:0921H         PUBLIC        _Reset_ANO_Package
  C:08F2H         PUBLIC        Send_ANO_Package
  D:00D0H         PUBLIC        PSW
  -------         PROC          _RESET_ANO_PACKAGE
  D:000EH         SYMBOL        Cmd
  D:000FH         SYMBOL        Len
BL51 BANKED LINKER/LOCATER V6.22                                                      04/06/2017  18:30:06  PAGE 13


  C:0921H         LINE#         46
  C:0925H         LINE#         47
  C:0925H         LINE#         48
  C:0934H         LINE#         49
  C:093AH         LINE#         50
  C:093DH         LINE#         51
  C:0940H         LINE#         52
  C:0948H         LINE#         53
  -------         ENDPROC       _RESET_ANO_PACKAGE
  -------         PROC          _LOAD_ANO_PACKAGE
  D:0007H         SYMBOL        Dat
  -------         DO            
  D:0015H         SYMBOL        i
  -------         ENDDO         
  C:09ADH         LINE#         65
  C:09ADH         LINE#         66
  C:09ADH         LINE#         69
  C:09B4H         LINE#         70
  C:09B9H         LINE#         72
  C:09C0H         LINE#         73
  C:09C0H         LINE#         74
  C:09C3H         LINE#         75
  C:09C5H         LINE#         76
  C:09C5H         LINE#         78
  C:09C6H         LINE#         79
  -------         ENDPROC       _LOAD_ANO_PACKAGE
  -------         PROC          SEND_ANO_PACKAGE
  -------         DO            
  D:0016H         SYMBOL        i
  -------         ENDDO         
  C:08F2H         LINE#         90
  C:08F2H         LINE#         91
  C:08F2H         LINE#         94
  C:08FCH         LINE#         96
  C:08FEH         LINE#         97
  C:0910H         LINE#         98
  C:0910H         LINE#         99
  C:0913H         LINE#         100
  C:0915H         LINE#         101
  C:091AH         LINE#         102
  C:091AH         LINE#         103
  C:091DH         LINE#         104
  C:091FH         LINE#         105
  C:091FH         LINE#         107
  C:0920H         LINE#         108
  -------         ENDPROC       SEND_ANO_PACKAGE
  -------         ENDMOD        API_ANO_TC

  -------         MODULE        API_DELAY
  C:0000H         SYMBOL        _ICE_DUMMY_
  C:0970H         PUBLIC        _ms_Delay
  -------         PROC          _MS_DELAY
  D:0006H         SYMBOL        k
  -------         DO            
  D:0004H         SYMBOL        i
  D:0002H         SYMBOL        j
  -------         ENDDO         
BL51 BANKED LINKER/LOCATER V6.22                                                      04/06/2017  18:30:06  PAGE 14


  C:0970H         LINE#         34
  C:0970H         LINE#         35
  C:0970H         LINE#         38
  C:097BH         LINE#         39
  C:097BH         LINE#         40
  C:0989H         LINE#         41
  C:0990H         LINE#         42
  -------         ENDPROC       _MS_DELAY
  -------         ENDMOD        API_DELAY

  -------         MODULE        ?C?COPY
  C:011EH         PUBLIC        ?C?COPY
  -------         ENDMOD        ?C?COPY

  -------         MODULE        ?C?CLDPTR
  C:0144H         PUBLIC        ?C?CLDPTR
  -------         ENDMOD        ?C?CLDPTR

  -------         MODULE        ?C?CSTPTR
  C:015DH         PUBLIC        ?C?CSTPTR
  -------         ENDMOD        ?C?CSTPTR

  -------         MODULE        ?C?IMUL
  C:016FH         PUBLIC        ?C?IMUL
  -------         ENDMOD        ?C?IMUL

  -------         MODULE        ?C?UIDIV
  C:0181H         PUBLIC        ?C?UIDIV
  -------         ENDMOD        ?C?UIDIV

  -------         MODULE        ?C?ISTPTR
  C:01D6H         PUBLIC        ?C?ISTPTR
  -------         ENDMOD        ?C?ISTPTR

  -------         MODULE        ?C?ULDIV
  C:0231H         PUBLIC        ?C?ULDIV
  -------         ENDMOD        ?C?ULDIV

  -------         MODULE        ?C?SLSHR
  C:02C3H         PUBLIC        ?C?SLSHR
  -------         ENDMOD        ?C?SLSHR

  -------         MODULE        ?C?MEMSET
  C:02D7H         PUBLIC        ?C?MEMSET
  -------         ENDMOD        ?C?MEMSET

*** WARNING L16: UNCALLED SEGMENT, IGNORED FOR OVERLAY PROCESS
    SEGMENT: ?PR?_WRITE_AS5048?AS5048

*** WARNING L16: UNCALLED SEGMENT, IGNORED FOR OVERLAY PROCESS
    SEGMENT: ?PR?_READ_AS5048?AS5048

*** WARNING L16: UNCALLED SEGMENT, IGNORED FOR OVERLAY PROCESS
    SEGMENT: ?PR?_SWITCH_CTIMER?FU68XX_CTIMER

*** WARNING L16: UNCALLED SEGMENT, IGNORED FOR OVERLAY PROCESS
    SEGMENT: ?PR?_SENDRECEIVE_BYTE_SPI?FU68XX_SPI
BL51 BANKED LINKER/LOCATER V6.22                                                      04/06/2017  18:30:06  PAGE 15



*** WARNING L16: UNCALLED SEGMENT, IGNORED FOR OVERLAY PROCESS
    SEGMENT: ?PR?_SENDRECEIVE_BYTES_SPI?FU68XX_SPI

*** WARNING L16: UNCALLED SEGMENT, IGNORED FOR OVERLAY PROCESS
    SEGMENT: ?PR?_SEND_UART?FU68XX_UART

*** WARNING L16: UNCALLED SEGMENT, IGNORED FOR OVERLAY PROCESS
    SEGMENT: ?PR?CALIBRATE_FOC?FU68XX_FOC

Program Size: data=66.6 xdata=0 code=2560
LINK/LOCATE RUN COMPLETE.  7 WARNING(S),  0 ERROR(S)
