BL51 BANKED LINKER/LOCATER V6.22                                                        04/02/2017  00:06:47  PAGE 1


BL51 BANKED LINKER/LOCATER V6.22, INVOKED BY:
D:\KEIL\C51\BIN\BL51.EXE .\Objects\Init.obj, .\Objects\Interrupt.obj, .\Objects\main.obj, .\Objects\AS5048.obj, .\Object
>> s\FU68xx_CTimer.obj, .\Objects\FU68xx_SPI.obj, .\Objects\API_RGB.obj TO .\Objects\Test PRINT (.\Listings\Test.m51) RA
>> MSIZE (256)


MEMORY MODEL: SMALL


INPUT MODULES INCLUDED:
  .\Objects\Init.obj (INIT)
  .\Objects\Interrupt.obj (INTERRUPT)
  .\Objects\main.obj (MAIN)
  .\Objects\AS5048.obj (AS5048)
  .\Objects\FU68xx_CTimer.obj (FU68XX_CTIMER)
  .\Objects\FU68xx_SPI.obj (FU68XX_SPI)
  .\Objects\API_RGB.obj (API_RGB)
  D:\KEIL\C51\LIB\C51S.LIB (?C_STARTUP)
  D:\KEIL\C51\LIB\C51S.LIB (?C?CLDPTR)
  D:\KEIL\C51\LIB\C51S.LIB (?C?CSTPTR)
  D:\KEIL\C51\LIB\C51S.LIB (?C?ISTPTR)
  D:\KEIL\C51\LIB\C51S.LIB (?C?ULDIV)


LINK MAP OF MODULE:  .\Objects\Test (INIT)


            TYPE    BASE      LENGTH    RELOCATION   SEGMENT NAME
            -----------------------------------------------------

            * * * * * * *   D A T A   M E M O R Y   * * * * * * *
            REG     0000H     0008H     ABSOLUTE     "REG BANK 0"
            DATA    0008H     0007H     UNIT         ?DT?_READ_AS5048?AS5048
            DATA    000FH     0007H     UNIT         ?DT?_SENDRECEIVE_BYTES_SPI?FU68XX_SPI
            DATA    0016H     0007H     UNIT         _DATA_GROUP_
            DATA    001DH     0002H     UNIT         ?DT?MAIN
            DATA    001FH     0001H     UNIT         ?DT?INTERRUPT
            BIT     0020H.0   0000H.2   UNIT         ?BI?INTERRUPT
            BIT     0020H.2   0000H.1   UNIT         ?BI?_SWITCH_CTIMER?FU68XX_CTIMER
            BIT     0020H.3   0000H.1   UNIT         _BIT_GROUP_
                    0020H.4   0000H.4                *** GAP ***
            DATA    0021H     0002H     UNIT         ?DT?_WRITE_AS5048?AS5048
            IDATA   0023H     0001H     UNIT         ?STACK

            * * * * * * *   C O D E   M E M O R Y   * * * * * * *
            CODE    0000H     0003H     ABSOLUTE     
            CODE    0003H     0042H     UNIT         ?PR?_READ_AS5048?AS5048
            CODE    0045H     0004H     UNIT         ?CO?FU68XX_CTIMER
                    0049H     0002H                  *** GAP ***
            CODE    004BH     0003H     ABSOLUTE     
            CODE    004EH     0118H     UNIT         ?C?LIB_CODE
            CODE    0166H     0081H     UNIT         ?PR?_INIT_CTIMER?FU68XX_CTIMER
            CODE    01E7H     004DH     UNIT         ?PR?_SENDRECEIVE_BYTES_SPI?FU68XX_SPI
            CODE    0234H     003BH     UNIT         ?PR?_SWITCH_CTIMER?FU68XX_CTIMER
            CODE    026FH     003BH     UNIT         ?PR?_INIT_SPI?FU68XX_SPI
            CODE    02AAH     0038H     UNIT         ?PR?_PARITY16?AS5048
            CODE    02E2H     0038H     UNIT         ?PR?_WRITE_AS5048?AS5048
            CODE    031AH     002FH     UNIT         ?PR?INIT?INIT
BL51 BANKED LINKER/LOCATER V6.22                                                      04/02/2017  00:06:47  PAGE 2


            CODE    0349H     0021H     UNIT         ?PR?IRQ_CTIMER23?INTERRUPT
            CODE    036AH     0013H     UNIT         ?PR?MAIN?MAIN
            CODE    037DH     0012H     UNIT         ?PR?_SENDRECEIVE_BYTE_SPI?FU68XX_SPI
            CODE    038FH     0010H     UNIT         ?PR?INIT_RGB?API_RGB
            CODE    039FH     000CH     UNIT         ?C_C51STARTUP



OVERLAY MAP OF MODULE:   .\Objects\Test (INIT)


SEGMENT                                          BIT_GROUP          DATA_GROUP 
  +--> CALLED SEGMENT                         START    LENGTH     START    LENGTH
---------------------------------------------------------------------------------
?C_C51STARTUP                                 -----    -----      -----    -----
  +--> ?PR?MAIN?MAIN

?PR?MAIN?MAIN                                 -----    -----      -----    -----
  +--> ?PR?INIT?INIT

?PR?INIT?INIT                                 -----    -----      -----    -----
  +--> ?PR?INIT_RGB?API_RGB
  +--> ?PR?_INIT_SPI?FU68XX_SPI
  +--> ?PR?_INIT_CTIMER?FU68XX_CTIMER

?PR?_INIT_SPI?FU68XX_SPI                      0020H.3  0000H.1    0016H    0006H

?PR?_INIT_CTIMER?FU68XX_CTIMER                -----    -----      0016H    0007H
  +--> ?CO?FU68XX_CTIMER



SYMBOL TABLE OF MODULE:  .\Objects\Test (INIT)

  VALUE           TYPE          NAME
  ----------------------------------

  -------         MODULE        INIT
  C:0000H         SYMBOL        _ICE_DUMMY_
  D:0080H         PUBLIC        P0
  D:0090H         PUBLIC        P1
  D:00A0H         PUBLIC        P2
  D:00B0H         PUBLIC        P3
  B:00A8H.7       PUBLIC        EA
  C:031AH         PUBLIC        Init
  D:00B8H         PUBLIC        IP0
  D:00C0H         PUBLIC        IP1
  D:00C8H         PUBLIC        IP2
  D:00D8H         PUBLIC        IP3
  D:00D0H         PUBLIC        PSW
  -------         PROC          INIT
  C:031AH         LINE#         35
  C:031AH         LINE#         36
  C:031AH         LINE#         37
  C:031DH         LINE#         38
  C:0332H         LINE#         39
  C:0346H         LINE#         40
BL51 BANKED LINKER/LOCATER V6.22                                                      04/02/2017  00:06:47  PAGE 3


  C:0348H         LINE#         41
  -------         ENDPROC       INIT
  -------         ENDMOD        INIT

  -------         MODULE        INTERRUPT
  C:0000H         SYMBOL        _ICE_DUMMY_
  D:0080H         PUBLIC        P0
  D:0090H         PUBLIC        P1
  D:00A0H         PUBLIC        P2
  D:00B0H         PUBLIC        P3
  B:0020H.0       PUBLIC        Time500ms
  B:0020H.1       PUBLIC        Time2ms
  B:00B0H.6       PUBLIC        P36
  C:0349H         PUBLIC        Irq_CTimer23
  D:00A9H         PUBLIC        TIM2_CR1
  D:00B8H         PUBLIC        IP0
  D:00C0H         PUBLIC        IP1
  D:00C8H         PUBLIC        IP2
  D:00D8H         PUBLIC        IP3
  D:00D0H         PUBLIC        PSW
  -------         PROC          IRQ_CTIMER23
  -------         DO            
  D:001FH         SYMBOL        TimeCount
  -------         ENDDO         
  C:0349H         LINE#         38
  C:034DH         LINE#         42
  C:0352H         LINE#         43
  C:0352H         LINE#         44
  C:0354H         LINE#         45
  C:0356H         LINE#         47
  C:035BH         LINE#         48
  C:035BH         LINE#         49
  C:035DH         LINE#         50
  C:0360H         LINE#         51
  C:0362H         LINE#         52
  C:0362H         LINE#         55
  C:0365H         LINE#         56
  C:0365H         LINE#         57
  -------         ENDPROC       IRQ_CTIMER23
  -------         ENDMOD        INTERRUPT

  -------         MODULE        MAIN
  C:0000H         SYMBOL        _ICE_DUMMY_
  D:0080H         PUBLIC        P0
  D:0090H         PUBLIC        P1
  D:00A0H         PUBLIC        P2
  D:00B0H         PUBLIC        P3
  C:036AH         PUBLIC        main
  D:001DH         PUBLIC        Package
  D:00B8H         PUBLIC        IP0
  D:00C0H         PUBLIC        IP1
  D:00C8H         PUBLIC        IP2
  D:00D8H         PUBLIC        IP3
  D:00D0H         PUBLIC        PSW
  -------         PROC          MAIN
  C:036AH         LINE#         39
  C:036AH         LINE#         40
BL51 BANKED LINKER/LOCATER V6.22                                                      04/02/2017  00:06:47  PAGE 4


  C:036AH         LINE#         41
  C:036DH         LINE#         43
  C:0374H         LINE#         44
  C:0374H         LINE#         45
  C:0374H         LINE#         46
  C:037BH         LINE#         50
  -------         ENDPROC       MAIN
  -------         ENDMOD        MAIN

  -------         MODULE        AS5048
  C:0000H         SYMBOL        _ICE_DUMMY_
  C:0003H         PUBLIC        _Read_AS5048
  C:02E2H         PUBLIC        _Write_AS5048
  C:02AAH         SYMBOL        _Parity16
  -------         PROC          _PARITY16
  D:0006H         SYMBOL        Dat
  -------         DO            
  D:0004H         SYMBOL        tmp
  -------         ENDDO         
  C:02AAH         LINE#         35
  C:02AAH         LINE#         36
  C:02AAH         LINE#         37
  C:02AEH         LINE#         39
  C:02B9H         LINE#         40
  C:02CAH         LINE#         41
  C:02DCH         LINE#         42
  C:02DFH         LINE#         44
  C:02E1H         LINE#         45
  -------         ENDPROC       _PARITY16
  -------         PROC          _WRITE_AS5048
  D:0006H         SYMBOL        Addr
  D:0021H         SYMBOL        Dat
  -------         DO            
  D:0002H         SYMBOL        WriteDat
  -------         ENDDO         
  C:02E2H         LINE#         57
  C:02E6H         LINE#         58
  C:02E6H         LINE#         61
  C:02EAH         LINE#         62
  C:02F9H         LINE#         63
  C:02FEH         LINE#         65
  C:0302H         LINE#         66
  C:0315H         LINE#         67
  -------         ENDPROC       _WRITE_AS5048
  -------         PROC          _READ_AS5048
  D:0006H         SYMBOL        Addr
  D:0008H         SYMBOL        Dat
  -------         DO            
  D:000BH         SYMBOL        WriteDat
  D:000DH         SYMBOL        ReadDat
  -------         ENDDO         
  C:0003H         LINE#         80
  C:0009H         LINE#         81
  C:0009H         LINE#         85
  C:0010H         LINE#         86
  C:0020H         LINE#         87
  C:0025H         LINE#         89
BL51 BANKED LINKER/LOCATER V6.22                                                      04/02/2017  00:06:47  PAGE 5


  C:002FH         LINE#         90
  C:0044H         LINE#         91
  -------         ENDPROC       _READ_AS5048
  -------         ENDMOD        AS5048

  -------         MODULE        FU68XX_CTIMER
  C:0000H         SYMBOL        _ICE_DUMMY_
  D:0080H         PUBLIC        P0
  D:0090H         PUBLIC        P1
  D:00A0H         PUBLIC        P2
  D:00B0H         PUBLIC        P3
  D:00ACH         PUBLIC        TIM2_DR
  D:00A4H         PUBLIC        TIM3_DR
  D:0094H         PUBLIC        TIM4_DR
  D:008CH         PUBLIC        TIM5_DR
  C:0045H         PUBLIC        phsel
  C:0234H         PUBLIC        _switch_CTimer
  C:0166H         PUBLIC        _Init_CTimer
  D:00A1H         PUBLIC        TIM2_CR0
  D:009CH         PUBLIC        TIM3_CR0
  D:00A9H         PUBLIC        TIM2_CR1
  D:009EH         PUBLIC        TIM4_CR0
  D:009DH         PUBLIC        TIM3_CR1
  D:0089H         PUBLIC        TIM5_CR0
  D:009FH         PUBLIC        TIM4_CR1
  D:0091H         PUBLIC        TIM5_CR1
  D:00AEH         PUBLIC        TIM2_ARR
  D:00A6H         PUBLIC        TIM3_ARR
  D:0096H         PUBLIC        TIM4_ARR
  D:008EH         PUBLIC        TIM5_ARR
  -------         PROC          _INIT_CTIMER
  D:0007H         SYMBOL        num
  D:0005H         SYMBOL        cr0
  D:0003H         SYMBOL        cr1
  D:0019H         SYMBOL        arr
  D:001BH         SYMBOL        dr
  C:0166H         LINE#         31
  C:0166H         LINE#         32
  C:0166H         LINE#         33
  C:0175H         LINE#         34
  C:0175H         LINE#         35
  C:0187H         LINE#         36
  C:0199H         LINE#         37
  C:01ABH         LINE#         38
  C:01BBH         LINE#         40
  C:01BBH         LINE#         42
  C:01D3H         LINE#         43
  C:01E6H         LINE#         44
  -------         ENDPROC       _INIT_CTIMER
  -------         PROC          _SWITCH_CTIMER
  D:0007H         SYMBOL        num
  B:0020H.2       SYMBOL        sw
  C:0234H         LINE#         56
  C:0234H         LINE#         57
  C:0234H         LINE#         58
  C:0243H         LINE#         59
  C:0243H         LINE#         60
BL51 BANKED LINKER/LOCATER V6.22                                                      04/02/2017  00:06:47  PAGE 6


  C:0243H         LINE#         61
  C:024AH         LINE#         62
  C:024DH         LINE#         63
  C:024EH         LINE#         65
  C:024EH         LINE#         66
  C:0255H         LINE#         67
  C:0258H         LINE#         68
  C:0259H         LINE#         70
  C:0259H         LINE#         71
  C:0260H         LINE#         72
  C:0263H         LINE#         73
  C:0264H         LINE#         75
  C:0264H         LINE#         76
  C:026BH         LINE#         77
  C:026EH         LINE#         78
  C:026EH         LINE#         79
  C:026EH         LINE#         80
  -------         ENDPROC       _SWITCH_CTIMER
  -------         ENDMOD        FU68XX_CTIMER

  -------         MODULE        FU68XX_SPI
  C:0000H         SYMBOL        _ICE_DUMMY_
  D:0080H         PUBLIC        P0
  D:0090H         PUBLIC        P1
  D:00A0H         PUBLIC        P2
  D:00B0H         PUBLIC        P3
  C:01E7H         PUBLIC        _SendReceive_Bytes_SPI
  C:037DH         PUBLIC        _SendReceive_Byte_SPI
  B:00A8H.3       PUBLIC        SPI_IE
  C:026FH         PUBLIC        _Init_SPI
  -------         PROC          _INIT_SPI
  D:0016H         SYMBOL        Line_Mode
  D:0017H         SYMBOL        Config
  D:0018H         SYMBOL        SPEED
  B:0020H.3       SYMBOL        EnIrq
  C:026FH         LINE#         36
  C:0273H         LINE#         37
  C:0273H         LINE#         38
  C:028CH         LINE#         39
  C:029AH         LINE#         41
  C:02A0H         LINE#         42
  C:02A5H         LINE#         43
  C:02A9H         LINE#         44
  -------         ENDPROC       _INIT_SPI
  -------         PROC          _SENDRECEIVE_BYTE_SPI
  D:0007H         SYMBOL        SendDat
  -------         DO            
  D:0007H         SYMBOL        tmp
  -------         ENDDO         
  C:037DH         LINE#         56
  C:037DH         LINE#         57
  C:037DH         LINE#         60
  C:0382H         LINE#         61
  C:0389H         LINE#         62
  C:038EH         LINE#         64
  C:038EH         LINE#         65
  -------         ENDPROC       _SENDRECEIVE_BYTE_SPI
BL51 BANKED LINKER/LOCATER V6.22                                                      04/02/2017  00:06:47  PAGE 7


  -------         PROC          _SENDRECEIVE_BYTES_SPI
  D:000FH         SYMBOL        SendDat
  D:0012H         SYMBOL        ReceiveDat
  D:0015H         SYMBOL        len
  C:01E7H         LINE#         78
  C:01EDH         LINE#         79
  C:01EDH         LINE#         80
  C:01F4H         LINE#         81
  C:01F4H         LINE#         82
  C:0201H         LINE#         83
  C:020CH         LINE#         84
  C:0219H         LINE#         86
  C:0226H         LINE#         87
  C:0231H         LINE#         88
  C:0233H         LINE#         89
  -------         ENDPROC       _SENDRECEIVE_BYTES_SPI
  -------         ENDMOD        FU68XX_SPI

  -------         MODULE        API_RGB
  C:0000H         SYMBOL        _ICE_DUMMY_
  D:0080H         PUBLIC        P0
  D:0090H         PUBLIC        P1
  D:00A0H         PUBLIC        P2
  D:00B0H         PUBLIC        P3
  D:00FFH         PUBLIC        P3OE
  B:00B0H.6       PUBLIC        P36
  B:00B0H.7       PUBLIC        P37
  C:038FH         PUBLIC        Init_RGB
  -------         PROC          INIT_RGB
  C:038FH         LINE#         33
  C:038FH         LINE#         34
  C:038FH         LINE#         35
  C:0392H         LINE#         36
  C:0395H         LINE#         37
  C:0398H         LINE#         39
  C:039AH         LINE#         40
  C:039CH         LINE#         41
  C:039EH         LINE#         42
  -------         ENDPROC       INIT_RGB
  -------         ENDMOD        API_RGB

  -------         MODULE        ?C?CLDPTR
  C:004EH         PUBLIC        ?C?CLDPTR
  -------         ENDMOD        ?C?CLDPTR

  -------         MODULE        ?C?CSTPTR
  C:0067H         PUBLIC        ?C?CSTPTR
  -------         ENDMOD        ?C?CSTPTR

  -------         MODULE        ?C?ISTPTR
  C:0079H         PUBLIC        ?C?ISTPTR
  -------         ENDMOD        ?C?ISTPTR

  -------         MODULE        ?C?ULDIV
  C:00D4H         PUBLIC        ?C?ULDIV
  -------         ENDMOD        ?C?ULDIV

BL51 BANKED LINKER/LOCATER V6.22                                                      04/02/2017  00:06:47  PAGE 8


*** WARNING L16: UNCALLED SEGMENT, IGNORED FOR OVERLAY PROCESS
    SEGMENT: ?PR?_WRITE_AS5048?AS5048

*** WARNING L16: UNCALLED SEGMENT, IGNORED FOR OVERLAY PROCESS
    SEGMENT: ?PR?_READ_AS5048?AS5048

*** WARNING L16: UNCALLED SEGMENT, IGNORED FOR OVERLAY PROCESS
    SEGMENT: ?PR?_SWITCH_CTIMER?FU68XX_CTIMER

*** WARNING L16: UNCALLED SEGMENT, IGNORED FOR OVERLAY PROCESS
    SEGMENT: ?PR?_SENDRECEIVE_BYTES_SPI?FU68XX_SPI

Program Size: data=35.4 xdata=0 code=937
LINK/LOCATE RUN COMPLETE.  4 WARNING(S),  0 ERROR(S)
