BL51 BANKED LINKER/LOCATER V6.22                                                        04/03/2017  10:43:46  PAGE 1


BL51 BANKED LINKER/LOCATER V6.22, INVOKED BY:
D:\KEIL\C51\BIN\BL51.EXE .\Objects\Init.obj, .\Objects\Interrupt.obj, .\Objects\main.obj, .\Objects\AS5048.obj, .\Object
>> s\FU68xx_CTimer.obj, .\Objects\FU68xx_SPI.obj, .\Objects\FU68xx_UART.obj, .\Objects\API_RGB.obj, .\Objects\API_ANO_TC
>> .obj TO .\Objects\Test PRINT (.\Listings\Test.m51) RAMSIZE (256)


MEMORY MODEL: SMALL


INPUT MODULES INCLUDED:
  .\Objects\Init.obj (INIT)
  .\Objects\Interrupt.obj (INTERRUPT)
  .\Objects\main.obj (MAIN)
  .\Objects\AS5048.obj (AS5048)
  .\Objects\FU68xx_CTimer.obj (FU68XX_CTIMER)
  .\Objects\FU68xx_SPI.obj (FU68XX_SPI)
  .\Objects\FU68xx_UART.obj (FU68XX_UART)
  .\Objects\API_RGB.obj (API_RGB)
  .\Objects\API_ANO_TC.obj (API_ANO_TC)
  D:\KEIL\C51\LIB\C51S.LIB (?C_STARTUP)
  D:\KEIL\C51\LIB\C51S.LIB (?C?COPY)
  D:\KEIL\C51\LIB\C51S.LIB (?C?CLDPTR)
  D:\KEIL\C51\LIB\C51S.LIB (?C?CSTPTR)
  D:\KEIL\C51\LIB\C51S.LIB (?C?ISTPTR)
  D:\KEIL\C51\LIB\C51S.LIB (?C?ULDIV)
  D:\KEIL\C51\LIB\C51S.LIB (?C?MEMSET)
  D:\KEIL\C51\LIB\C51S.LIB (?C_INIT)


LINK MAP OF MODULE:  .\Objects\Test (INIT)


            TYPE    BASE      LENGTH    RELOCATION   SEGMENT NAME
            -----------------------------------------------------

            * * * * * * *   D A T A   M E M O R Y   * * * * * * *
            REG     0000H     0008H     ABSOLUTE     "REG BANK 0"
            DATA    0008H     0012H     UNIT         _DATA_GROUP_
            DATA    001AH     0004H     UNIT         ?DT?_WRITE_AS5048?AS5048
            DATA    001EH     0002H     UNIT         ?DT?AS5048
            BIT     0020H.0   0000H.2   UNIT         ?BI?INTERRUPT
            BIT     0020H.2   0000H.2   UNIT         _BIT_GROUP_
            BIT     0020H.4   0000H.1   UNIT         ?BI?_SWITCH_CTIMER?FU68XX_CTIMER
                    0020H.5   0000H.3                *** GAP ***
            DATA    0021H     0009H     UNIT         ?DT?API_ANO_TC
            DATA    002AH     0007H     UNIT         ?DT?_READ_AS5048?AS5048
            DATA    0031H     0007H     UNIT         ?DT?_SENDRECEIVE_BYTES_SPI?FU68XX_SPI
            DATA    0038H     0001H     UNIT         ?DT?INTERRUPT
            IDATA   0039H     0001H     UNIT         ?STACK

            * * * * * * *   C O D E   M E M O R Y   * * * * * * *
            CODE    0000H     0003H     ABSOLUTE     
            CODE    0003H     003BH     UNIT         ?PR?_SWITCH_CTIMER?FU68XX_CTIMER
            CODE    003EH     0008H     UNIT         ?PR?_SEND_BYTE_UART?FU68XX_UART
            CODE    0046H     0004H     UNIT         ?CO?FU68XX_CTIMER
                    004AH     0001H                  *** GAP ***
            CODE    004BH     0003H     ABSOLUTE     
            CODE    004EH     023AH     UNIT         ?C?LIB_CODE
BL51 BANKED LINKER/LOCATER V6.22                                                      04/03/2017  10:43:46  PAGE 2


            CODE    0288H     008CH     UNIT         ?PR?_READ_AS5048?AS5048
            CODE    0314H     008CH     UNIT         ?C_C51STARTUP
            CODE    03A0H     0086H     UNIT         ?PR?_WRITE_AS5048?AS5048
            CODE    0426H     0081H     UNIT         ?PR?_INIT_CTIMER?FU68XX_CTIMER
            CODE    04A7H     005FH     UNIT         ?PR?INIT?INIT
            CODE    0506H     0051H     UNIT         ?PR?MAIN?MAIN
            CODE    0557H     004DH     UNIT         ?PR?_SENDRECEIVE_BYTES_SPI?FU68XX_SPI
            CODE    05A4H     003BH     UNIT         ?PR?_INIT_SPI?FU68XX_SPI
            CODE    05DFH     003AH     UNIT         ?PR?_INIT_UART?FU68XX_UART
            CODE    0619H     0039H     UNIT         ?PR?_PARITY16?AS5048
            CODE    0652H     0035H     UNIT         ?PR?READ_ANG_AS5048?AS5048
            CODE    0687H     002FH     UNIT         ?PR?SEND_ANO_PACKAGE?API_ANO_TC
            CODE    06B6H     0028H     UNIT         ?PR?_RESET_ANO_PACKAGE?API_ANO_TC
            CODE    06DEH     0027H     UNIT         ?PR?_SENDRECEIVE_DBYTE_SPI?FU68XX_SPI
            CODE    0705H     0021H     UNIT         ?PR?IRQ_CTIMER23?INTERRUPT
            CODE    0726H     001CH     UNIT         ?PR?_SEND_UART?FU68XX_UART
            CODE    0742H     001AH     UNIT         ?PR?_LOAD_ANO_PACKAGE?API_ANO_TC
            CODE    075CH     0012H     UNIT         ?PR?_SENDRECEIVE_BYTE_SPI?FU68XX_SPI
            CODE    076EH     0010H     UNIT         ?PR?INIT_RGB?API_RGB
            CODE    077EH     0007H     UNIT         ?CO?MAIN
            CODE    0785H     0007H     UNIT         ?C_INITSEG



OVERLAY MAP OF MODULE:   .\Objects\Test (INIT)


SEGMENT                                          BIT_GROUP          DATA_GROUP 
  +--> CALLED SEGMENT                         START    LENGTH     START    LENGTH
---------------------------------------------------------------------------------
?C_C51STARTUP                                 -----    -----      -----    -----
  +--> ?PR?MAIN?MAIN
  +--> ?C_INITSEG

?PR?MAIN?MAIN                                 0020H.2  0000H.1    0008H    000BH
  +--> ?CO?MAIN
  +--> ?PR?INIT?INIT
  +--> ?PR?READ_ANG_AS5048?AS5048
  +--> ?PR?_LOAD_ANO_PACKAGE?API_ANO_TC
  +--> ?PR?SEND_ANO_PACKAGE?API_ANO_TC
  +--> ?PR?_RESET_ANO_PACKAGE?API_ANO_TC

?PR?INIT?INIT                                 -----    -----      -----    -----
  +--> ?PR?INIT_RGB?API_RGB
  +--> ?PR?_INIT_SPI?FU68XX_SPI
  +--> ?PR?_INIT_CTIMER?FU68XX_CTIMER
  +--> ?PR?_INIT_UART?FU68XX_UART
  +--> ?PR?_RESET_ANO_PACKAGE?API_ANO_TC
  +--> ?PR?_SENDRECEIVE_DBYTE_SPI?FU68XX_SPI

?PR?_INIT_SPI?FU68XX_SPI                      0020H.3  0000H.1    0013H    0006H

?PR?_INIT_CTIMER?FU68XX_CTIMER                -----    -----      0013H    0007H
  +--> ?CO?FU68XX_CTIMER

?PR?_INIT_UART?FU68XX_UART                    0020H.3  0000H.1    0013H    0006H

BL51 BANKED LINKER/LOCATER V6.22                                                      04/03/2017  10:43:46  PAGE 3


?PR?_RESET_ANO_PACKAGE?API_ANO_TC             -----    -----      0013H    0002H

?PR?READ_ANG_AS5048?AS5048                    -----    -----      0013H    0002H
  +--> ?PR?_SENDRECEIVE_DBYTE_SPI?FU68XX_SPI

?PR?SEND_ANO_PACKAGE?API_ANO_TC               -----    -----      -----    -----
  +--> ?PR?_SEND_BYTE_UART?FU68XX_UART



SYMBOL TABLE OF MODULE:  .\Objects\Test (INIT)

  VALUE           TYPE          NAME
  ----------------------------------

  -------         MODULE        INIT
  C:0000H         SYMBOL        _ICE_DUMMY_
  D:0080H         PUBLIC        P0
  D:0090H         PUBLIC        P1
  D:00A0H         PUBLIC        P2
  D:00B0H         PUBLIC        P3
  B:00A8H.7       PUBLIC        EA
  C:04A7H         PUBLIC        Init
  D:00B8H         PUBLIC        IP0
  D:00C0H         PUBLIC        IP1
  D:00C8H         PUBLIC        IP2
  D:00D8H         PUBLIC        IP3
  D:00D0H         PUBLIC        PSW
  -------         PROC          INIT
  C:04A7H         LINE#         35
  C:04A7H         LINE#         36
  C:04A7H         LINE#         37
  C:04AAH         LINE#         38
  C:04BFH         LINE#         39
  C:04D3H         LINE#         40
  C:04E8H         LINE#         42
  C:04EAH         LINE#         44
  C:04F1H         LINE#         46
  C:04F8H         LINE#         47
  C:04FEH         LINE#         48
  C:0505H         LINE#         50
  -------         ENDPROC       INIT
  -------         ENDMOD        INIT

  -------         MODULE        INTERRUPT
  C:0000H         SYMBOL        _ICE_DUMMY_
  D:0080H         PUBLIC        P0
  D:0090H         PUBLIC        P1
  D:00A0H         PUBLIC        P2
  D:00B0H         PUBLIC        P3
  B:0020H.0       PUBLIC        time500ms
  B:00B0H.6       PUBLIC        P36
  C:0705H         PUBLIC        Irq_CTimer23
  D:00A9H         PUBLIC        TIM2_CR1
  B:0020H.1       PUBLIC        time2ms
  D:00B8H         PUBLIC        IP0
  D:00C0H         PUBLIC        IP1
BL51 BANKED LINKER/LOCATER V6.22                                                      04/03/2017  10:43:46  PAGE 4


  D:00C8H         PUBLIC        IP2
  D:00D8H         PUBLIC        IP3
  D:00D0H         PUBLIC        PSW
  -------         PROC          IRQ_CTIMER23
  -------         DO            
  D:0038H         SYMBOL        TimeCount
  -------         ENDDO         
  C:0705H         LINE#         38
  C:0709H         LINE#         42
  C:070EH         LINE#         43
  C:070EH         LINE#         44
  C:0710H         LINE#         45
  C:0712H         LINE#         47
  C:0717H         LINE#         48
  C:0717H         LINE#         49
  C:0719H         LINE#         50
  C:071CH         LINE#         51
  C:071EH         LINE#         52
  C:071EH         LINE#         55
  C:0721H         LINE#         56
  C:0721H         LINE#         57
  -------         ENDPROC       IRQ_CTIMER23
  -------         ENDMOD        INTERRUPT

  -------         MODULE        MAIN
  C:0000H         SYMBOL        _ICE_DUMMY_
  D:0080H         PUBLIC        P0
  D:0090H         PUBLIC        P1
  D:00A0H         PUBLIC        P2
  D:00B0H         PUBLIC        P3
  C:0506H         PUBLIC        main
  B:00B0H.7       PUBLIC        P37
  C:077EH         SYMBOL        _?ix1000
  D:00B8H         PUBLIC        IP0
  D:00C0H         PUBLIC        IP1
  D:00C8H         PUBLIC        IP2
  D:00D8H         PUBLIC        IP3
  D:00D0H         PUBLIC        PSW
  -------         PROC          MAIN
  -------         DO            
  B:0020H.2       SYMBOL        main2ms
  D:0008H         SYMBOL        DatLast
  D:000AH         SYMBOL        DatOut
  D:000CH         SYMBOL        OB_Win
  -------         ENDDO         
  C:0506H         LINE#         33
  C:0506H         LINE#         34
  C:0506H         LINE#         44
  C:0519H         LINE#         46
  C:051CH         LINE#         48
  C:051CH         LINE#         49
  C:051CH         LINE#         50
  C:0520H         LINE#         51
  C:0523H         LINE#         52
  C:0523H         LINE#         53
  C:0525H         LINE#         54
  C:0528H         LINE#         55
BL51 BANKED LINKER/LOCATER V6.22                                                      04/03/2017  10:43:46  PAGE 5


  C:052EH         LINE#         56
  C:052EH         LINE#         57
  C:0534H         LINE#         59
  C:0534H         LINE#         60
  C:053AH         LINE#         61
  C:053CH         LINE#         63
  C:0542H         LINE#         64
  C:0547H         LINE#         65
  C:054CH         LINE#         66
  C:0553H         LINE#         68
  C:0555H         LINE#         69
  C:0555H         LINE#         70
  -------         ENDPROC       MAIN
  -------         ENDMOD        MAIN

  -------         MODULE        AS5048
  C:0000H         SYMBOL        _ICE_DUMMY_
  D:0080H         PUBLIC        P0
  D:0090H         PUBLIC        P1
  D:00A0H         PUBLIC        P2
  D:00B0H         PUBLIC        P3
  D:001EH         PUBLIC        Angle_AS5048
  C:0288H         PUBLIC        _Read_AS5048
  D:00B8H         PUBLIC        IP0
  D:00C0H         PUBLIC        IP1
  D:00C8H         PUBLIC        IP2
  D:00D8H         PUBLIC        IP3
  C:03A0H         PUBLIC        _Write_AS5048
  C:0619H         SYMBOL        _Parity16
  D:00D0H         PUBLIC        PSW
  C:0652H         PUBLIC        Read_ANG_AS5048
  -------         PROC          _PARITY16
  D:0006H         SYMBOL        Dat
  -------         DO            
  D:0004H         SYMBOL        tmp
  -------         ENDDO         
  C:0619H         LINE#         39
  C:0619H         LINE#         40
  C:0619H         LINE#         41
  C:061FH         LINE#         43
  C:0629H         LINE#         44
  C:063AH         LINE#         45
  C:064CH         LINE#         46
  C:064FH         LINE#         48
  C:0651H         LINE#         49
  -------         ENDPROC       _PARITY16
  -------         PROC          _WRITE_AS5048
  D:0006H         SYMBOL        Addr
  D:0002H         SYMBOL        Dat
  -------         DO            
  D:001AH         SYMBOL        WriteAddr
  D:001CH         SYMBOL        WriteDat
  -------         ENDDO         
  C:03A0H         LINE#         61
  C:03A4H         LINE#         62
  C:03A4H         LINE#         66
  C:03B2H         LINE#         67
BL51 BANKED LINKER/LOCATER V6.22                                                      04/03/2017  10:43:46  PAGE 6


  C:03D0H         LINE#         68
  C:03E0H         LINE#         69
  C:03FEH         LINE#         71
  C:0405H         LINE#         72
  C:040CH         LINE#         73
  C:0413H         LINE#         74
  C:0417H         LINE#         75
  C:041EH         LINE#         76
  C:0425H         LINE#         77
  -------         ENDPROC       _WRITE_AS5048
  -------         PROC          _READ_AS5048
  D:0006H         SYMBOL        Addr
  D:002AH         SYMBOL        Dat
  -------         DO            
  D:002DH         SYMBOL        WriteDat
  D:002FH         SYMBOL        ReadDat
  -------         ENDDO         
  C:0288H         LINE#         90
  C:028EH         LINE#         91
  C:028EH         LINE#         95
  C:029CH         LINE#         96
  C:029FH         LINE#         97
  C:02BDH         LINE#         99
  C:02C4H         LINE#         100
  C:02CBH         LINE#         101
  C:02D2H         LINE#         102
  C:02D6H         LINE#         103
  C:02E0H         LINE#         104
  C:02E7H         LINE#         106
  C:02FFH         LINE#         107
  C:02FFH         LINE#         108
  C:0310H         LINE#         109
  C:0312H         LINE#         110
  C:0312H         LINE#         112
  C:0313H         LINE#         113
  -------         ENDPROC       _READ_AS5048
  -------         PROC          READ_ANG_AS5048
  -------         DO            
  D:0013H         SYMBOL        Dat
  -------         ENDDO         
  C:0652H         LINE#         124
  C:0652H         LINE#         125
  C:0652H         LINE#         128
  C:0659H         LINE#         129
  C:0660H         LINE#         130
  C:0667H         LINE#         131
  C:066BH         LINE#         132
  C:067FH         LINE#         133
  C:0686H         LINE#         134
  -------         ENDPROC       READ_ANG_AS5048
  -------         ENDMOD        AS5048

  -------         MODULE        FU68XX_CTIMER
  C:0000H         SYMBOL        _ICE_DUMMY_
  D:0080H         PUBLIC        P0
  D:0090H         PUBLIC        P1
  D:00A0H         PUBLIC        P2
BL51 BANKED LINKER/LOCATER V6.22                                                      04/03/2017  10:43:46  PAGE 7


  D:00B0H         PUBLIC        P3
  D:00ACH         PUBLIC        TIM2_DR
  D:00A4H         PUBLIC        TIM3_DR
  D:0094H         PUBLIC        TIM4_DR
  D:008CH         PUBLIC        TIM5_DR
  C:0046H         PUBLIC        phsel
  C:0003H         PUBLIC        _switch_CTimer
  C:0426H         PUBLIC        _Init_CTimer
  D:00A1H         PUBLIC        TIM2_CR0
  D:009CH         PUBLIC        TIM3_CR0
  D:00A9H         PUBLIC        TIM2_CR1
  D:009EH         PUBLIC        TIM4_CR0
  D:009DH         PUBLIC        TIM3_CR1
  D:0089H         PUBLIC        TIM5_CR0
  D:009FH         PUBLIC        TIM4_CR1
  D:0091H         PUBLIC        TIM5_CR1
  D:00AEH         PUBLIC        TIM2_ARR
  D:00A6H         PUBLIC        TIM3_ARR
  D:0096H         PUBLIC        TIM4_ARR
  D:008EH         PUBLIC        TIM5_ARR
  -------         PROC          _INIT_CTIMER
  D:0007H         SYMBOL        num
  D:0005H         SYMBOL        cr0
  D:0003H         SYMBOL        cr1
  D:0016H         SYMBOL        arr
  D:0018H         SYMBOL        dr
  C:0426H         LINE#         31
  C:0426H         LINE#         32
  C:0426H         LINE#         33
  C:0435H         LINE#         34
  C:0435H         LINE#         35
  C:0447H         LINE#         36
  C:0459H         LINE#         37
  C:046BH         LINE#         38
  C:047BH         LINE#         40
  C:047BH         LINE#         42
  C:0493H         LINE#         43
  C:04A6H         LINE#         44
  -------         ENDPROC       _INIT_CTIMER
  -------         PROC          _SWITCH_CTIMER
  D:0007H         SYMBOL        num
  B:0020H.4       SYMBOL        sw
  C:0003H         LINE#         56
  C:0003H         LINE#         57
  C:0003H         LINE#         58
  C:0012H         LINE#         59
  C:0012H         LINE#         60
  C:0012H         LINE#         61
  C:0019H         LINE#         62
  C:001CH         LINE#         63
  C:001DH         LINE#         65
  C:001DH         LINE#         66
  C:0024H         LINE#         67
  C:0027H         LINE#         68
  C:0028H         LINE#         70
  C:0028H         LINE#         71
  C:002FH         LINE#         72
BL51 BANKED LINKER/LOCATER V6.22                                                      04/03/2017  10:43:46  PAGE 8


  C:0032H         LINE#         73
  C:0033H         LINE#         75
  C:0033H         LINE#         76
  C:003AH         LINE#         77
  C:003DH         LINE#         78
  C:003DH         LINE#         79
  C:003DH         LINE#         80
  -------         ENDPROC       _SWITCH_CTIMER
  -------         ENDMOD        FU68XX_CTIMER

  -------         MODULE        FU68XX_SPI
  C:0000H         SYMBOL        _ICE_DUMMY_
  D:0080H         PUBLIC        P0
  D:0090H         PUBLIC        P1
  D:00A0H         PUBLIC        P2
  D:00B0H         PUBLIC        P3
  C:0557H         PUBLIC        _SendReceive_Bytes_SPI
  C:075CH         PUBLIC        _SendReceive_Byte_SPI
  B:00A8H.3       PUBLIC        SPI_IE
  C:06DEH         PUBLIC        _SendReceive_DByte_SPI
  C:05A4H         PUBLIC        _Init_SPI
  -------         PROC          _INIT_SPI
  D:0013H         SYMBOL        Line_Mode
  D:0014H         SYMBOL        Config
  D:0015H         SYMBOL        SPEED
  B:0020H.3       SYMBOL        EnIrq
  C:05A4H         LINE#         36
  C:05A8H         LINE#         37
  C:05A8H         LINE#         38
  C:05C1H         LINE#         39
  C:05CFH         LINE#         41
  C:05D5H         LINE#         42
  C:05DAH         LINE#         43
  C:05DEH         LINE#         44
  -------         ENDPROC       _INIT_SPI
  -------         PROC          _SENDRECEIVE_BYTE_SPI
  D:0007H         SYMBOL        SendDat
  C:075CH         LINE#         56
  C:075CH         LINE#         57
  C:075CH         LINE#         58
  C:0761H         LINE#         59
  C:0768H         LINE#         61
  C:076DH         LINE#         62
  -------         ENDPROC       _SENDRECEIVE_BYTE_SPI
  -------         PROC          _SENDRECEIVE_DBYTE_SPI
  D:0004H         SYMBOL        SendDat
  -------         DO            
  D:0006H         SYMBOL        tmp
  -------         ENDDO         
  C:06DEH         LINE#         74
  C:06E2H         LINE#         75
  C:06E2H         LINE#         78
  C:06E7H         LINE#         79
  C:06EEH         LINE#         80
  C:06F5H         LINE#         82
  C:06F7H         LINE#         83
  C:06FEH         LINE#         84
BL51 BANKED LINKER/LOCATER V6.22                                                      04/03/2017  10:43:46  PAGE 9


  C:0704H         LINE#         86
  C:0704H         LINE#         87
  -------         ENDPROC       _SENDRECEIVE_DBYTE_SPI
  -------         PROC          _SENDRECEIVE_BYTES_SPI
  D:0031H         SYMBOL        SendDat
  D:0034H         SYMBOL        ReceiveDat
  D:0037H         SYMBOL        len
  C:0557H         LINE#         100
  C:055DH         LINE#         101
  C:055DH         LINE#         102
  C:0564H         LINE#         103
  C:0564H         LINE#         104
  C:0571H         LINE#         105
  C:057CH         LINE#         106
  C:0589H         LINE#         108
  C:0596H         LINE#         109
  C:05A1H         LINE#         110
  C:05A3H         LINE#         111
  -------         ENDPROC       _SENDRECEIVE_BYTES_SPI
  -------         ENDMOD        FU68XX_SPI

  -------         MODULE        FU68XX_UART
  C:0000H         SYMBOL        _ICE_DUMMY_
  D:0080H         PUBLIC        P0
  D:0090H         PUBLIC        P1
  D:00A0H         PUBLIC        P2
  D:00B0H         PUBLIC        P3
  B:00A8H.4       PUBLIC        ES
  B:0098H.1       PUBLIC        TI
  C:003EH         PUBLIC        _Send_Byte_UART
  C:0726H         PUBLIC        _Send_UART
  C:05DFH         PUBLIC        _Init_UART
  D:0098H         PUBLIC        UTCR
  D:0099H         PUBLIC        UTDR
  D:009AH         PUBLIC        UTBU
  -------         PROC          _INIT_UART
  D:0013H         SYMBOL        addr
  D:0005H         SYMBOL        Config
  D:0015H         SYMBOL        bund
  B:0020H.3       SYMBOL        irq
  C:05DFH         LINE#         31
  C:05E1H         LINE#         32
  C:05E1H         LINE#         33
  C:05E3H         LINE#         34
  C:0601H         LINE#         35
  C:0603H         LINE#         37
  C:0607H         LINE#         39
  C:0618H         LINE#         40
  -------         ENDPROC       _INIT_UART
  -------         PROC          _SEND_UART
  D:0001H         SYMBOL        str
  D:0005H         SYMBOL        Size
  -------         DO            
  D:0007H         SYMBOL        i
  -------         ENDDO         
  C:0726H         LINE#         52
  C:0726H         LINE#         53
BL51 BANKED LINKER/LOCATER V6.22                                                      04/03/2017  10:43:46  PAGE 10


  C:0726H         LINE#         54
  C:0728H         LINE#         56
  C:072DH         LINE#         57
  C:072DH         LINE#         58
  C:0730H         LINE#         59
  C:0735H         LINE#         60
  C:0736H         LINE#         61
  C:073DH         LINE#         62
  C:073FH         LINE#         63
  C:0741H         LINE#         64
  -------         ENDPROC       _SEND_UART
  -------         PROC          _SEND_BYTE_UART
  D:0007H         SYMBOL        dat
  C:003EH         LINE#         75
  C:003EH         LINE#         76
  C:003EH         LINE#         77
  C:0041H         LINE#         78
  C:0043H         LINE#         79
  C:0045H         LINE#         80
  -------         ENDPROC       _SEND_BYTE_UART
  -------         ENDMOD        FU68XX_UART

  -------         MODULE        API_RGB
  C:0000H         SYMBOL        _ICE_DUMMY_
  D:0080H         PUBLIC        P0
  D:0090H         PUBLIC        P1
  D:00A0H         PUBLIC        P2
  D:00B0H         PUBLIC        P3
  D:00FFH         PUBLIC        P3OE
  B:00B0H.6       PUBLIC        P36
  B:00B0H.7       PUBLIC        P37
  D:00B8H         PUBLIC        IP0
  D:00C0H         PUBLIC        IP1
  D:00C8H         PUBLIC        IP2
  D:00D8H         PUBLIC        IP3
  C:076EH         PUBLIC        Init_RGB
  D:00D0H         PUBLIC        PSW
  -------         PROC          INIT_RGB
  C:076EH         LINE#         33
  C:076EH         LINE#         34
  C:076EH         LINE#         35
  C:0771H         LINE#         36
  C:0774H         LINE#         37
  C:0777H         LINE#         39
  C:0779H         LINE#         40
  C:077BH         LINE#         41
  C:077DH         LINE#         42
  -------         ENDPROC       INIT_RGB
  -------         ENDMOD        API_RGB

  -------         MODULE        API_ANO_TC
  C:0000H         SYMBOL        _ICE_DUMMY_
  D:0080H         PUBLIC        P0
  D:0090H         PUBLIC        P1
  D:00A0H         PUBLIC        P2
  D:00B0H         PUBLIC        P3
  D:0023H         SYMBOL        AT_B
BL51 BANKED LINKER/LOCATER V6.22                                                      04/03/2017  10:43:46  PAGE 11


  D:00B8H         PUBLIC        IP0
  D:00C0H         PUBLIC        IP1
  D:00C8H         PUBLIC        IP2
  D:00D8H         PUBLIC        IP3
  C:0742H         PUBLIC        _Load_ANO_Package
  C:06B6H         PUBLIC        _Reset_ANO_Package
  C:0687H         PUBLIC        Send_ANO_Package
  D:00D0H         PUBLIC        PSW
  -------         PROC          _RESET_ANO_PACKAGE
  D:0013H         SYMBOL        Cmd
  D:0014H         SYMBOL        Len
  C:06B6H         LINE#         46
  C:06BAH         LINE#         47
  C:06BAH         LINE#         48
  C:06C9H         LINE#         49
  C:06CFH         LINE#         50
  C:06D2H         LINE#         51
  C:06D5H         LINE#         52
  C:06DDH         LINE#         53
  -------         ENDPROC       _RESET_ANO_PACKAGE
  -------         PROC          _LOAD_ANO_PACKAGE
  D:0007H         SYMBOL        Dat
  -------         DO            
  D:0021H         SYMBOL        i
  -------         ENDDO         
  C:0742H         LINE#         65
  C:0742H         LINE#         66
  C:0742H         LINE#         69
  C:0749H         LINE#         70
  C:074EH         LINE#         72
  C:0755H         LINE#         73
  C:0755H         LINE#         74
  C:0758H         LINE#         75
  C:075AH         LINE#         76
  C:075AH         LINE#         78
  C:075BH         LINE#         79
  -------         ENDPROC       _LOAD_ANO_PACKAGE
  -------         PROC          SEND_ANO_PACKAGE
  -------         DO            
  D:0022H         SYMBOL        i
  -------         ENDDO         
  C:0687H         LINE#         90
  C:0687H         LINE#         91
  C:0687H         LINE#         94
  C:0691H         LINE#         96
  C:0693H         LINE#         97
  C:06A5H         LINE#         98
  C:06A5H         LINE#         99
  C:06A8H         LINE#         100
  C:06AAH         LINE#         101
  C:06AFH         LINE#         102
  C:06AFH         LINE#         103
  C:06B2H         LINE#         104
  C:06B4H         LINE#         105
  C:06B4H         LINE#         107
  C:06B5H         LINE#         108
  -------         ENDPROC       SEND_ANO_PACKAGE
BL51 BANKED LINKER/LOCATER V6.22                                                      04/03/2017  10:43:46  PAGE 12


  -------         ENDMOD        API_ANO_TC

  -------         MODULE        ?C?COPY
  C:011EH         PUBLIC        ?C?COPY
  -------         ENDMOD        ?C?COPY

  -------         MODULE        ?C?CLDPTR
  C:0144H         PUBLIC        ?C?CLDPTR
  -------         ENDMOD        ?C?CLDPTR

  -------         MODULE        ?C?CSTPTR
  C:015DH         PUBLIC        ?C?CSTPTR
  -------         ENDMOD        ?C?CSTPTR

  -------         MODULE        ?C?ISTPTR
  C:016FH         PUBLIC        ?C?ISTPTR
  -------         ENDMOD        ?C?ISTPTR

  -------         MODULE        ?C?ULDIV
  C:01CAH         PUBLIC        ?C?ULDIV
  -------         ENDMOD        ?C?ULDIV

  -------         MODULE        ?C?MEMSET
  C:025CH         PUBLIC        ?C?MEMSET
  -------         ENDMOD        ?C?MEMSET

*** WARNING L16: UNCALLED SEGMENT, IGNORED FOR OVERLAY PROCESS
    SEGMENT: ?PR?_WRITE_AS5048?AS5048

*** WARNING L16: UNCALLED SEGMENT, IGNORED FOR OVERLAY PROCESS
    SEGMENT: ?PR?_READ_AS5048?AS5048

*** WARNING L16: UNCALLED SEGMENT, IGNORED FOR OVERLAY PROCESS
    SEGMENT: ?PR?_SWITCH_CTIMER?FU68XX_CTIMER

*** WARNING L16: UNCALLED SEGMENT, IGNORED FOR OVERLAY PROCESS
    SEGMENT: ?PR?_SENDRECEIVE_BYTE_SPI?FU68XX_SPI

*** WARNING L16: UNCALLED SEGMENT, IGNORED FOR OVERLAY PROCESS
    SEGMENT: ?PR?_SENDRECEIVE_BYTES_SPI?FU68XX_SPI

*** WARNING L16: UNCALLED SEGMENT, IGNORED FOR OVERLAY PROCESS
    SEGMENT: ?PR?_SEND_UART?FU68XX_UART

Program Size: data=57.5 xdata=0 code=1931
LINK/LOCATE RUN COMPLETE.  6 WARNING(S),  0 ERROR(S)
