BL51 BANKED LINKER/LOCATER V6.22                                                        04/05/2017  21:05:52  PAGE 1


BL51 BANKED LINKER/LOCATER V6.22, INVOKED BY:
D:\KEIL\C51\BIN\BL51.EXE .\Objects\Init.obj, .\Objects\Interrupt.obj, .\Objects\main.obj, .\Objects\AS5048.obj, .\Object
>> s\FU68xx_CTimer.obj, .\Objects\FU68xx_SPI.obj, .\Objects\FU68xx_UART.obj, .\Objects\FU68xx_ADC.obj, .\Objects\FU68xx_
>> FOC.obj, .\Objects\API_RGB.obj, .\Objects\API_ANO_TC.obj, .\Objects\API_Delay.obj TO .\Objects\Test PRINT (.\Listings
>> \Test.m51) RAMSIZE (256)


MEMORY MODEL: SMALL


INPUT MODULES INCLUDED:
  .\Objects\Init.obj (INIT)
  .\Objects\Interrupt.obj (INTERRUPT)
  .\Objects\main.obj (MAIN)
  .\Objects\AS5048.obj (AS5048)
  .\Objects\FU68xx_CTimer.obj (FU68XX_CTIMER)
  .\Objects\FU68xx_SPI.obj (FU68XX_SPI)
  .\Objects\FU68xx_UART.obj (FU68XX_UART)
  .\Objects\FU68xx_ADC.obj (FU68XX_ADC)
  .\Objects\FU68xx_FOC.obj (FU68XX_FOC)
  .\Objects\API_RGB.obj (API_RGB)
  .\Objects\API_ANO_TC.obj (API_ANO_TC)
  .\Objects\API_Delay.obj (API_DELAY)
  D:\KEIL\C51\LIB\C51S.LIB (?C_STARTUP)
  D:\KEIL\C51\LIB\C51S.LIB (?C?COPY)
  D:\KEIL\C51\LIB\C51S.LIB (?C?CLDPTR)
  D:\KEIL\C51\LIB\C51S.LIB (?C?CSTPTR)
  D:\KEIL\C51\LIB\C51S.LIB (?C?ISTPTR)
  D:\KEIL\C51\LIB\C51S.LIB (?C?ULDIV)
  D:\KEIL\C51\LIB\C51S.LIB (?C?SLSHR)
  D:\KEIL\C51\LIB\C51S.LIB (?C?MEMSET)
  D:\KEIL\C51\LIB\C51S.LIB (?C_INIT)


LINK MAP OF MODULE:  .\Objects\Test (INIT)


            TYPE    BASE      LENGTH    RELOCATION   SEGMENT NAME
            -----------------------------------------------------

            * * * * * * *   D A T A   M E M O R Y   * * * * * * *
            REG     0000H     0008H     ABSOLUTE     "REG BANK 0"
            DATA    0008H     000DH     UNIT         _DATA_GROUP_
            DATA    0015H     000BH     UNIT         ?DT?API_ANO_TC
            BIT     0020H.0   0000H.2   UNIT         ?BI?INTERRUPT
            BIT     0020H.2   0000H.2   UNIT         _BIT_GROUP_
            BIT     0020H.4   0000H.1   UNIT         ?BI?_SWITCH_CTIMER?FU68XX_CTIMER
                    0020H.5   0000H.3                *** GAP ***
            DATA    0021H     000CH     UNIT         ?DT?CALIBRATE_FOC?FU68XX_FOC
            DATA    002DH     0007H     UNIT         ?DT?_READ_AS5048?AS5048
            DATA    0034H     0007H     UNIT         ?DT?_SENDRECEIVE_BYTES_SPI?FU68XX_SPI
            DATA    003BH     0004H     UNIT         ?DT?_WRITE_AS5048?AS5048
            DATA    003FH     0002H     UNIT         ?DT?AS5048
            DATA    0041H     0001H     UNIT         ?DT?INTERRUPT
            IDATA   0042H     0001H     UNIT         ?STACK

            * * * * * * *   C O D E   M E M O R Y   * * * * * * *
            CODE    0000H     0003H     ABSOLUTE     
BL51 BANKED LINKER/LOCATER V6.22                                                      04/05/2017  21:05:52  PAGE 2


            CODE    0003H     0044H     UNIT         ?PR?_INIT_ADC?FU68XX_ADC
            CODE    0047H     0004H     UNIT         ?CO?FU68XX_CTIMER
            CODE    004BH     0003H     ABSOLUTE     
            CODE    004EH     024EH     UNIT         ?C?LIB_CODE
            CODE    029CH     00B6H     UNIT         ?PR?CALIBRATE_FOC?FU68XX_FOC
            CODE    0352H     0090H     UNIT         ?PR?INIT_FOC?FU68XX_FOC
            CODE    03E2H     008CH     UNIT         ?PR?_READ_AS5048?AS5048
            CODE    046EH     008CH     UNIT         ?C_C51STARTUP
            CODE    04FAH     0086H     UNIT         ?PR?_WRITE_AS5048?AS5048
            CODE    0580H     0081H     UNIT         ?PR?_INIT_CTIMER?FU68XX_CTIMER
            CODE    0601H     0064H     UNIT         ?PR?MAIN?MAIN
            CODE    0665H     0062H     UNIT         ?PR?INIT?INIT
            CODE    06C7H     004DH     UNIT         ?PR?_SENDRECEIVE_BYTES_SPI?FU68XX_SPI
            CODE    0714H     003BH     UNIT         ?PR?_SWITCH_CTIMER?FU68XX_CTIMER
            CODE    074FH     003BH     UNIT         ?PR?_INIT_SPI?FU68XX_SPI
            CODE    078AH     003AH     UNIT         ?PR?_INIT_UART?FU68XX_UART
            CODE    07C4H     0039H     UNIT         ?PR?_PARITY16?AS5048
            CODE    07FDH     0035H     UNIT         ?PR?READ_ANG_AS5048?AS5048
            CODE    0832H     002FH     UNIT         ?PR?SEND_ANO_PACKAGE?API_ANO_TC
            CODE    0861H     0028H     UNIT         ?PR?_RESET_ANO_PACKAGE?API_ANO_TC
            CODE    0889H     0027H     UNIT         ?PR?_SENDRECEIVE_DBYTE_SPI?FU68XX_SPI
            CODE    08B0H     0021H     UNIT         ?PR?IRQ_CTIMER23?INTERRUPT
            CODE    08D1H     0021H     UNIT         ?PR?_MS_DELAY?API_DELAY
            CODE    08F2H     001CH     UNIT         ?PR?_SEND_UART?FU68XX_UART
            CODE    090EH     001AH     UNIT         ?PR?_LOAD_ANO_PACKAGE?API_ANO_TC
            CODE    0928H     0012H     UNIT         ?PR?_SENDRECEIVE_BYTE_SPI?FU68XX_SPI
            CODE    093AH     0010H     UNIT         ?PR?INIT_RGB?API_RGB
            CODE    094AH     0008H     UNIT         ?PR?_SEND_BYTE_UART?FU68XX_UART
            CODE    0952H     0008H     UNIT         ?CO?FU68XX_FOC
            CODE    095AH     0007H     UNIT         ?C_INITSEG



OVERLAY MAP OF MODULE:   .\Objects\Test (INIT)


SEGMENT                                          BIT_GROUP          DATA_GROUP 
  +--> CALLED SEGMENT                         START    LENGTH     START    LENGTH
---------------------------------------------------------------------------------
?C_C51STARTUP                                 -----    -----      -----    -----
  +--> ?PR?MAIN?MAIN
  +--> ?C_INITSEG

?PR?MAIN?MAIN                                 0020H.2  0000H.1    0008H    0006H
  +--> ?PR?INIT?INIT
  +--> ?PR?READ_ANG_AS5048?AS5048
  +--> ?PR?_LOAD_ANO_PACKAGE?API_ANO_TC
  +--> ?PR?SEND_ANO_PACKAGE?API_ANO_TC
  +--> ?PR?_RESET_ANO_PACKAGE?API_ANO_TC

?PR?INIT?INIT                                 -----    -----      -----    -----
  +--> ?PR?INIT_RGB?API_RGB
  +--> ?PR?_INIT_SPI?FU68XX_SPI
  +--> ?PR?_INIT_CTIMER?FU68XX_CTIMER
  +--> ?PR?_INIT_UART?FU68XX_UART
  +--> ?PR?INIT_FOC?FU68XX_FOC
  +--> ?PR?_RESET_ANO_PACKAGE?API_ANO_TC
BL51 BANKED LINKER/LOCATER V6.22                                                      04/05/2017  21:05:52  PAGE 3


  +--> ?PR?_SENDRECEIVE_DBYTE_SPI?FU68XX_SPI

?PR?_INIT_SPI?FU68XX_SPI                      0020H.3  0000H.1    000EH    0006H

?PR?_INIT_CTIMER?FU68XX_CTIMER                -----    -----      000EH    0007H
  +--> ?CO?FU68XX_CTIMER

?PR?_INIT_UART?FU68XX_UART                    0020H.3  0000H.1    000EH    0006H

?PR?INIT_FOC?FU68XX_FOC                       -----    -----      -----    -----
  +--> ?PR?_MS_DELAY?API_DELAY

?PR?_RESET_ANO_PACKAGE?API_ANO_TC             -----    -----      000EH    0002H

?PR?READ_ANG_AS5048?AS5048                    -----    -----      -----    -----
  +--> ?PR?_SENDRECEIVE_DBYTE_SPI?FU68XX_SPI

?PR?SEND_ANO_PACKAGE?API_ANO_TC               -----    -----      -----    -----
  +--> ?PR?_SEND_BYTE_UART?FU68XX_UART



SYMBOL TABLE OF MODULE:  .\Objects\Test (INIT)

  VALUE           TYPE          NAME
  ----------------------------------

  -------         MODULE        INIT
  C:0000H         SYMBOL        _ICE_DUMMY_
  D:0080H         PUBLIC        P0
  D:0090H         PUBLIC        P1
  D:00A0H         PUBLIC        P2
  D:00B0H         PUBLIC        P3
  B:00A8H.7       PUBLIC        EA
  C:0665H         PUBLIC        Init
  D:00B8H         PUBLIC        IP0
  D:00C0H         PUBLIC        IP1
  D:00C8H         PUBLIC        IP2
  D:00D8H         PUBLIC        IP3
  D:00D0H         PUBLIC        PSW
  -------         PROC          INIT
  C:0665H         LINE#         35
  C:0665H         LINE#         36
  C:0665H         LINE#         37
  C:0668H         LINE#         38
  C:067DH         LINE#         39
  C:0691H         LINE#         40
  C:06A6H         LINE#         41
  C:06A9H         LINE#         43
  C:06ABH         LINE#         45
  C:06B2H         LINE#         47
  C:06B9H         LINE#         48
  C:06BFH         LINE#         49
  C:06C6H         LINE#         51
  -------         ENDPROC       INIT
  -------         ENDMOD        INIT

BL51 BANKED LINKER/LOCATER V6.22                                                      04/05/2017  21:05:52  PAGE 4


  -------         MODULE        INTERRUPT
  C:0000H         SYMBOL        _ICE_DUMMY_
  D:0080H         PUBLIC        P0
  D:0090H         PUBLIC        P1
  D:00A0H         PUBLIC        P2
  D:00B0H         PUBLIC        P3
  B:0020H.0       PUBLIC        time500ms
  B:00B0H.6       PUBLIC        P36
  C:08B0H         PUBLIC        Irq_CTimer23
  D:00A9H         PUBLIC        TIM2_CR1
  B:0020H.1       PUBLIC        time2ms
  D:00B8H         PUBLIC        IP0
  D:00C0H         PUBLIC        IP1
  D:00C8H         PUBLIC        IP2
  D:00D8H         PUBLIC        IP3
  D:00D0H         PUBLIC        PSW
  -------         PROC          IRQ_CTIMER23
  -------         DO            
  D:0041H         SYMBOL        TimeCount
  -------         ENDDO         
  C:08B0H         LINE#         38
  C:08B4H         LINE#         42
  C:08B9H         LINE#         43
  C:08B9H         LINE#         44
  C:08BBH         LINE#         45
  C:08BDH         LINE#         47
  C:08C2H         LINE#         48
  C:08C2H         LINE#         49
  C:08C4H         LINE#         50
  C:08C7H         LINE#         51
  C:08C9H         LINE#         52
  C:08C9H         LINE#         55
  C:08CCH         LINE#         56
  C:08CCH         LINE#         57
  -------         ENDPROC       IRQ_CTIMER23
  -------         ENDMOD        INTERRUPT

  -------         MODULE        MAIN
  C:0000H         SYMBOL        _ICE_DUMMY_
  D:0080H         PUBLIC        P0
  D:0090H         PUBLIC        P1
  D:00A0H         PUBLIC        P2
  D:00B0H         PUBLIC        P3
  C:0601H         PUBLIC        main
  B:00B0H.7       PUBLIC        P37
  D:00B8H         PUBLIC        IP0
  D:00C0H         PUBLIC        IP1
  D:00C8H         PUBLIC        IP2
  D:00D8H         PUBLIC        IP3
  D:00D0H         PUBLIC        PSW
  -------         PROC          MAIN
  -------         DO            
  B:0020H.2       SYMBOL        main2ms
  D:0008H         SYMBOL        DatLast
  D:000AH         SYMBOL        DatOut
  D:000CH         SYMBOL        i
  -------         ENDDO         
BL51 BANKED LINKER/LOCATER V6.22                                                      04/05/2017  21:05:52  PAGE 5


  C:0601H         LINE#         33
  C:0601H         LINE#         34
  C:0601H         LINE#         38
  C:0606H         LINE#         40
  C:0609H         LINE#         42
  C:0609H         LINE#         43
  C:0609H         LINE#         44
  C:060DH         LINE#         45
  C:0610H         LINE#         46
  C:0610H         LINE#         47
  C:0612H         LINE#         49
  C:0615H         LINE#         50
  C:0621H         LINE#         51
  C:0627H         LINE#         53
  C:0629H         LINE#         55
  C:0634H         LINE#         56
  C:063CH         LINE#         58
  C:0642H         LINE#         59
  C:0647H         LINE#         60
  C:0650H         LINE#         61
  C:0655H         LINE#         63
  C:065AH         LINE#         64
  C:0661H         LINE#         66
  C:0663H         LINE#         67
  C:0663H         LINE#         68
  -------         ENDPROC       MAIN
  -------         ENDMOD        MAIN

  -------         MODULE        AS5048
  C:0000H         SYMBOL        _ICE_DUMMY_
  D:0080H         PUBLIC        P0
  D:0090H         PUBLIC        P1
  D:00A0H         PUBLIC        P2
  D:00B0H         PUBLIC        P3
  D:003FH         PUBLIC        Angle_AS5048
  C:03E2H         PUBLIC        _Read_AS5048
  D:00B8H         PUBLIC        IP0
  D:00C0H         PUBLIC        IP1
  D:00C8H         PUBLIC        IP2
  D:00D8H         PUBLIC        IP3
  C:04FAH         PUBLIC        _Write_AS5048
  C:07C4H         SYMBOL        _Parity16
  D:00D0H         PUBLIC        PSW
  C:07FDH         PUBLIC        Read_ANG_AS5048
  -------         PROC          _PARITY16
  D:0006H         SYMBOL        Dat
  -------         DO            
  D:0004H         SYMBOL        tmp
  -------         ENDDO         
  C:07C4H         LINE#         39
  C:07C4H         LINE#         40
  C:07C4H         LINE#         41
  C:07CAH         LINE#         43
  C:07D4H         LINE#         44
  C:07E5H         LINE#         45
  C:07F7H         LINE#         46
  C:07FAH         LINE#         48
BL51 BANKED LINKER/LOCATER V6.22                                                      04/05/2017  21:05:52  PAGE 6


  C:07FCH         LINE#         49
  -------         ENDPROC       _PARITY16
  -------         PROC          _WRITE_AS5048
  D:0006H         SYMBOL        Addr
  D:0002H         SYMBOL        Dat
  -------         DO            
  D:003BH         SYMBOL        WriteAddr
  D:003DH         SYMBOL        WriteDat
  -------         ENDDO         
  C:04FAH         LINE#         61
  C:04FEH         LINE#         62
  C:04FEH         LINE#         66
  C:050CH         LINE#         67
  C:052AH         LINE#         68
  C:053AH         LINE#         69
  C:0558H         LINE#         71
  C:055FH         LINE#         72
  C:0566H         LINE#         73
  C:056DH         LINE#         74
  C:0571H         LINE#         75
  C:0578H         LINE#         76
  C:057FH         LINE#         77
  -------         ENDPROC       _WRITE_AS5048
  -------         PROC          _READ_AS5048
  D:0006H         SYMBOL        Addr
  D:002DH         SYMBOL        Dat
  -------         DO            
  D:0030H         SYMBOL        WriteDat
  D:0032H         SYMBOL        ReadDat
  -------         ENDDO         
  C:03E2H         LINE#         90
  C:03E8H         LINE#         91
  C:03E8H         LINE#         95
  C:03F6H         LINE#         96
  C:03F9H         LINE#         97
  C:0417H         LINE#         99
  C:041EH         LINE#         100
  C:0425H         LINE#         101
  C:042CH         LINE#         102
  C:0430H         LINE#         103
  C:043AH         LINE#         104
  C:0441H         LINE#         106
  C:0459H         LINE#         107
  C:0459H         LINE#         108
  C:046AH         LINE#         109
  C:046CH         LINE#         110
  C:046CH         LINE#         112
  C:046DH         LINE#         113
  -------         ENDPROC       _READ_AS5048
  -------         PROC          READ_ANG_AS5048
  C:07FDH         LINE#         124
  C:07FDH         LINE#         125
  C:07FDH         LINE#         126
  C:0804H         LINE#         127
  C:080BH         LINE#         128
  C:0812H         LINE#         129
  C:0816H         LINE#         130
BL51 BANKED LINKER/LOCATER V6.22                                                      04/05/2017  21:05:52  PAGE 7


  C:082AH         LINE#         131
  C:0831H         LINE#         132
  -------         ENDPROC       READ_ANG_AS5048
  -------         ENDMOD        AS5048

  -------         MODULE        FU68XX_CTIMER
  C:0000H         SYMBOL        _ICE_DUMMY_
  D:0080H         PUBLIC        P0
  D:0090H         PUBLIC        P1
  D:00A0H         PUBLIC        P2
  D:00B0H         PUBLIC        P3
  D:00ACH         PUBLIC        TIM2_DR
  D:00A4H         PUBLIC        TIM3_DR
  D:0094H         PUBLIC        TIM4_DR
  D:008CH         PUBLIC        TIM5_DR
  C:0047H         PUBLIC        phsel
  C:0714H         PUBLIC        _switch_CTimer
  C:0580H         PUBLIC        _Init_CTimer
  D:00A1H         PUBLIC        TIM2_CR0
  D:009CH         PUBLIC        TIM3_CR0
  D:00A9H         PUBLIC        TIM2_CR1
  D:009EH         PUBLIC        TIM4_CR0
  D:009DH         PUBLIC        TIM3_CR1
  D:0089H         PUBLIC        TIM5_CR0
  D:009FH         PUBLIC        TIM4_CR1
  D:0091H         PUBLIC        TIM5_CR1
  D:00AEH         PUBLIC        TIM2_ARR
  D:00A6H         PUBLIC        TIM3_ARR
  D:0096H         PUBLIC        TIM4_ARR
  D:008EH         PUBLIC        TIM5_ARR
  -------         PROC          _INIT_CTIMER
  D:0007H         SYMBOL        num
  D:0005H         SYMBOL        cr0
  D:0003H         SYMBOL        cr1
  D:0011H         SYMBOL        arr
  D:0013H         SYMBOL        dr
  C:0580H         LINE#         31
  C:0580H         LINE#         32
  C:0580H         LINE#         33
  C:058FH         LINE#         34
  C:058FH         LINE#         35
  C:05A1H         LINE#         36
  C:05B3H         LINE#         37
  C:05C5H         LINE#         38
  C:05D5H         LINE#         40
  C:05D5H         LINE#         42
  C:05EDH         LINE#         43
  C:0600H         LINE#         44
  -------         ENDPROC       _INIT_CTIMER
  -------         PROC          _SWITCH_CTIMER
  D:0007H         SYMBOL        num
  B:0020H.4       SYMBOL        sw
  C:0714H         LINE#         56
  C:0714H         LINE#         57
  C:0714H         LINE#         58
  C:0723H         LINE#         59
  C:0723H         LINE#         60
BL51 BANKED LINKER/LOCATER V6.22                                                      04/05/2017  21:05:52  PAGE 8


  C:0723H         LINE#         61
  C:072AH         LINE#         62
  C:072DH         LINE#         63
  C:072EH         LINE#         65
  C:072EH         LINE#         66
  C:0735H         LINE#         67
  C:0738H         LINE#         68
  C:0739H         LINE#         70
  C:0739H         LINE#         71
  C:0740H         LINE#         72
  C:0743H         LINE#         73
  C:0744H         LINE#         75
  C:0744H         LINE#         76
  C:074BH         LINE#         77
  C:074EH         LINE#         78
  C:074EH         LINE#         79
  C:074EH         LINE#         80
  -------         ENDPROC       _SWITCH_CTIMER
  -------         ENDMOD        FU68XX_CTIMER

  -------         MODULE        FU68XX_SPI
  C:0000H         SYMBOL        _ICE_DUMMY_
  D:0080H         PUBLIC        P0
  D:0090H         PUBLIC        P1
  D:00A0H         PUBLIC        P2
  D:00B0H         PUBLIC        P3
  C:06C7H         PUBLIC        _SendReceive_Bytes_SPI
  C:0928H         PUBLIC        _SendReceive_Byte_SPI
  B:00A8H.3       PUBLIC        SPI_IE
  C:0889H         PUBLIC        _SendReceive_DByte_SPI
  C:074FH         PUBLIC        _Init_SPI
  -------         PROC          _INIT_SPI
  D:000EH         SYMBOL        Line_Mode
  D:000FH         SYMBOL        Config
  D:0010H         SYMBOL        SPEED
  B:0020H.3       SYMBOL        EnIrq
  C:074FH         LINE#         36
  C:0753H         LINE#         37
  C:0753H         LINE#         38
  C:076CH         LINE#         39
  C:077AH         LINE#         41
  C:0780H         LINE#         42
  C:0785H         LINE#         43
  C:0789H         LINE#         44
  -------         ENDPROC       _INIT_SPI
  -------         PROC          _SENDRECEIVE_BYTE_SPI
  D:0007H         SYMBOL        SendDat
  C:0928H         LINE#         56
  C:0928H         LINE#         57
  C:0928H         LINE#         58
  C:092DH         LINE#         59
  C:0934H         LINE#         61
  C:0939H         LINE#         62
  -------         ENDPROC       _SENDRECEIVE_BYTE_SPI
  -------         PROC          _SENDRECEIVE_DBYTE_SPI
  D:0004H         SYMBOL        SendDat
  -------         DO            
BL51 BANKED LINKER/LOCATER V6.22                                                      04/05/2017  21:05:52  PAGE 9


  D:0006H         SYMBOL        tmp
  -------         ENDDO         
  C:0889H         LINE#         74
  C:088DH         LINE#         75
  C:088DH         LINE#         78
  C:0892H         LINE#         79
  C:0899H         LINE#         80
  C:08A0H         LINE#         82
  C:08A2H         LINE#         83
  C:08A9H         LINE#         84
  C:08AFH         LINE#         86
  C:08AFH         LINE#         87
  -------         ENDPROC       _SENDRECEIVE_DBYTE_SPI
  -------         PROC          _SENDRECEIVE_BYTES_SPI
  D:0034H         SYMBOL        SendDat
  D:0037H         SYMBOL        ReceiveDat
  D:003AH         SYMBOL        len
  C:06C7H         LINE#         100
  C:06CDH         LINE#         101
  C:06CDH         LINE#         102
  C:06D4H         LINE#         103
  C:06D4H         LINE#         104
  C:06E1H         LINE#         105
  C:06ECH         LINE#         106
  C:06F9H         LINE#         108
  C:0706H         LINE#         109
  C:0711H         LINE#         110
  C:0713H         LINE#         111
  -------         ENDPROC       _SENDRECEIVE_BYTES_SPI
  -------         ENDMOD        FU68XX_SPI

  -------         MODULE        FU68XX_UART
  C:0000H         SYMBOL        _ICE_DUMMY_
  D:0080H         PUBLIC        P0
  D:0090H         PUBLIC        P1
  D:00A0H         PUBLIC        P2
  D:00B0H         PUBLIC        P3
  B:00A8H.4       PUBLIC        ES
  B:0098H.1       PUBLIC        TI
  C:094AH         PUBLIC        _Send_Byte_UART
  C:08F2H         PUBLIC        _Send_UART
  C:078AH         PUBLIC        _Init_UART
  D:0098H         PUBLIC        UTCR
  D:0099H         PUBLIC        UTDR
  D:009AH         PUBLIC        UTBU
  -------         PROC          _INIT_UART
  D:000EH         SYMBOL        addr
  D:0005H         SYMBOL        Config
  D:0010H         SYMBOL        bund
  B:0020H.3       SYMBOL        irq
  C:078AH         LINE#         31
  C:078CH         LINE#         32
  C:078CH         LINE#         33
  C:078EH         LINE#         34
  C:07ACH         LINE#         35
  C:07AEH         LINE#         37
  C:07B2H         LINE#         39
BL51 BANKED LINKER/LOCATER V6.22                                                      04/05/2017  21:05:52  PAGE 10


  C:07C3H         LINE#         40
  -------         ENDPROC       _INIT_UART
  -------         PROC          _SEND_UART
  D:0001H         SYMBOL        str
  D:0005H         SYMBOL        Size
  -------         DO            
  D:0007H         SYMBOL        i
  -------         ENDDO         
  C:08F2H         LINE#         52
  C:08F2H         LINE#         53
  C:08F2H         LINE#         54
  C:08F4H         LINE#         56
  C:08F9H         LINE#         57
  C:08F9H         LINE#         58
  C:08FCH         LINE#         59
  C:0901H         LINE#         60
  C:0902H         LINE#         61
  C:0909H         LINE#         62
  C:090BH         LINE#         63
  C:090DH         LINE#         64
  -------         ENDPROC       _SEND_UART
  -------         PROC          _SEND_BYTE_UART
  D:0007H         SYMBOL        dat
  C:094AH         LINE#         75
  C:094AH         LINE#         76
  C:094AH         LINE#         77
  C:094DH         LINE#         78
  C:094FH         LINE#         79
  C:0951H         LINE#         80
  -------         ENDPROC       _SEND_BYTE_UART
  -------         ENDMOD        FU68XX_UART

  -------         MODULE        FU68XX_ADC
  C:0000H         SYMBOL        _ICE_DUMMY_
  C:0003H         PUBLIC        _Init_ADC
  -------         PROC          _INIT_ADC
  D:0007H         SYMBOL        Channel
  D:0005H         SYMBOL        Time
  C:0003H         LINE#         34
  C:0003H         LINE#         35
  C:0003H         LINE#         36
  C:0015H         LINE#         37
  C:0046H         LINE#         38
  -------         ENDPROC       _INIT_ADC
  -------         ENDMOD        FU68XX_ADC

  -------         MODULE        FU68XX_FOC
  C:0000H         SYMBOL        _ICE_DUMMY_
  D:0080H         PUBLIC        P0
  D:0090H         PUBLIC        P1
  D:00A0H         PUBLIC        P2
  D:00B0H         PUBLIC        P3
  C:0952H         SYMBOL        _?ix1000
  C:029CH         PUBLIC        Calibrate_FOC
  C:0352H         PUBLIC        Init_FOC
  D:00F8H         PUBLIC        DRVOUT
  D:00E8H         PUBLIC        FOCSET0
BL51 BANKED LINKER/LOCATER V6.22                                                      04/05/2017  21:05:52  PAGE 11


  -------         PROC          CALIBRATE_FOC
  -------         DO            
  D:0021H         SYMBOL        Buff
  D:0029H         SYMBOL        offset
  D:0003H         SYMBOL        i
  -------         ENDDO         
  C:029CH         LINE#         26
  C:029CH         LINE#         27
  C:029CH         LINE#         28
  C:02AFH         LINE#         32
  C:02B6H         LINE#         33
  C:02BDH         LINE#         35
  C:02BFH         LINE#         36
  C:02BFH         LINE#         37
  C:02C6H         LINE#         38
  C:02CDH         LINE#         39
  C:02D4H         LINE#         41
  C:02F1H         LINE#         42
  C:030BH         LINE#         43
  C:030FH         LINE#         45
  C:0320H         LINE#         46
  C:0331H         LINE#         48
  C:0337H         LINE#         49
  C:0341H         LINE#         51
  C:0347H         LINE#         52
  C:0351H         LINE#         53
  -------         ENDPROC       CALIBRATE_FOC
  -------         PROC          INIT_FOC
  C:0352H         LINE#         63
  C:0352H         LINE#         64
  C:0352H         LINE#         80
  C:0358H         LINE#         83
  C:035BH         LINE#         87
  C:0361H         LINE#         92
  C:0364H         LINE#         93
  C:036AH         LINE#         94
  C:0370H         LINE#         95
  C:0374H         LINE#         96
  C:037DH         LINE#         97
  C:0383H         LINE#         99
  C:038AH         LINE#         100
  C:038EH         LINE#         101
  C:0394H         LINE#         102
  C:0398H         LINE#         103
  C:039EH         LINE#         105
  C:03A7H         LINE#         106
  C:03AEH         LINE#         107
  C:03B7H         LINE#         108
  C:03BDH         LINE#         109
  C:03C4H         LINE#         111
  C:03CAH         LINE#         114
  C:03CDH         LINE#         116
  C:03D3H         LINE#         117
  C:03DAH         LINE#         119
  C:03E1H         LINE#         120
  -------         ENDPROC       INIT_FOC
  -------         ENDMOD        FU68XX_FOC
BL51 BANKED LINKER/LOCATER V6.22                                                      04/05/2017  21:05:52  PAGE 12



  -------         MODULE        API_RGB
  C:0000H         SYMBOL        _ICE_DUMMY_
  D:0080H         PUBLIC        P0
  D:0090H         PUBLIC        P1
  D:00A0H         PUBLIC        P2
  D:00B0H         PUBLIC        P3
  D:00FFH         PUBLIC        P3OE
  B:00B0H.6       PUBLIC        P36
  B:00B0H.7       PUBLIC        P37
  D:00B8H         PUBLIC        IP0
  D:00C0H         PUBLIC        IP1
  D:00C8H         PUBLIC        IP2
  D:00D8H         PUBLIC        IP3
  C:093AH         PUBLIC        Init_RGB
  D:00D0H         PUBLIC        PSW
  -------         PROC          INIT_RGB
  C:093AH         LINE#         33
  C:093AH         LINE#         34
  C:093AH         LINE#         35
  C:093DH         LINE#         36
  C:0940H         LINE#         37
  C:0943H         LINE#         39
  C:0945H         LINE#         40
  C:0947H         LINE#         41
  C:0949H         LINE#         42
  -------         ENDPROC       INIT_RGB
  -------         ENDMOD        API_RGB

  -------         MODULE        API_ANO_TC
  C:0000H         SYMBOL        _ICE_DUMMY_
  D:0080H         PUBLIC        P0
  D:0090H         PUBLIC        P1
  D:00A0H         PUBLIC        P2
  D:00B0H         PUBLIC        P3
  D:0017H         SYMBOL        AT_B
  D:00B8H         PUBLIC        IP0
  D:00C0H         PUBLIC        IP1
  D:00C8H         PUBLIC        IP2
  D:00D8H         PUBLIC        IP3
  C:090EH         PUBLIC        _Load_ANO_Package
  C:0861H         PUBLIC        _Reset_ANO_Package
  C:0832H         PUBLIC        Send_ANO_Package
  D:00D0H         PUBLIC        PSW
  -------         PROC          _RESET_ANO_PACKAGE
  D:000EH         SYMBOL        Cmd
  D:000FH         SYMBOL        Len
  C:0861H         LINE#         46
  C:0865H         LINE#         47
  C:0865H         LINE#         48
  C:0874H         LINE#         49
  C:087AH         LINE#         50
  C:087DH         LINE#         51
  C:0880H         LINE#         52
  C:0888H         LINE#         53
  -------         ENDPROC       _RESET_ANO_PACKAGE
  -------         PROC          _LOAD_ANO_PACKAGE
BL51 BANKED LINKER/LOCATER V6.22                                                      04/05/2017  21:05:52  PAGE 13


  D:0007H         SYMBOL        Dat
  -------         DO            
  D:0015H         SYMBOL        i
  -------         ENDDO         
  C:090EH         LINE#         65
  C:090EH         LINE#         66
  C:090EH         LINE#         69
  C:0915H         LINE#         70
  C:091AH         LINE#         72
  C:0921H         LINE#         73
  C:0921H         LINE#         74
  C:0924H         LINE#         75
  C:0926H         LINE#         76
  C:0926H         LINE#         78
  C:0927H         LINE#         79
  -------         ENDPROC       _LOAD_ANO_PACKAGE
  -------         PROC          SEND_ANO_PACKAGE
  -------         DO            
  D:0016H         SYMBOL        i
  -------         ENDDO         
  C:0832H         LINE#         90
  C:0832H         LINE#         91
  C:0832H         LINE#         94
  C:083CH         LINE#         96
  C:083EH         LINE#         97
  C:0850H         LINE#         98
  C:0850H         LINE#         99
  C:0853H         LINE#         100
  C:0855H         LINE#         101
  C:085AH         LINE#         102
  C:085AH         LINE#         103
  C:085DH         LINE#         104
  C:085FH         LINE#         105
  C:085FH         LINE#         107
  C:0860H         LINE#         108
  -------         ENDPROC       SEND_ANO_PACKAGE
  -------         ENDMOD        API_ANO_TC

  -------         MODULE        API_DELAY
  C:0000H         SYMBOL        _ICE_DUMMY_
  C:08D1H         PUBLIC        _ms_Delay
  -------         PROC          _MS_DELAY
  D:0006H         SYMBOL        k
  -------         DO            
  D:0004H         SYMBOL        i
  D:0002H         SYMBOL        j
  -------         ENDDO         
  C:08D1H         LINE#         34
  C:08D1H         LINE#         35
  C:08D1H         LINE#         38
  C:08DCH         LINE#         39
  C:08DCH         LINE#         40
  C:08EAH         LINE#         41
  C:08F1H         LINE#         42
  -------         ENDPROC       _MS_DELAY
  -------         ENDMOD        API_DELAY

BL51 BANKED LINKER/LOCATER V6.22                                                      04/05/2017  21:05:52  PAGE 14


  -------         MODULE        ?C?COPY
  C:011EH         PUBLIC        ?C?COPY
  -------         ENDMOD        ?C?COPY

  -------         MODULE        ?C?CLDPTR
  C:0144H         PUBLIC        ?C?CLDPTR
  -------         ENDMOD        ?C?CLDPTR

  -------         MODULE        ?C?CSTPTR
  C:015DH         PUBLIC        ?C?CSTPTR
  -------         ENDMOD        ?C?CSTPTR

  -------         MODULE        ?C?ISTPTR
  C:016FH         PUBLIC        ?C?ISTPTR
  -------         ENDMOD        ?C?ISTPTR

  -------         MODULE        ?C?ULDIV
  C:01CAH         PUBLIC        ?C?ULDIV
  -------         ENDMOD        ?C?ULDIV

  -------         MODULE        ?C?SLSHR
  C:025CH         PUBLIC        ?C?SLSHR
  -------         ENDMOD        ?C?SLSHR

  -------         MODULE        ?C?MEMSET
  C:0270H         PUBLIC        ?C?MEMSET
  -------         ENDMOD        ?C?MEMSET

*** WARNING L16: UNCALLED SEGMENT, IGNORED FOR OVERLAY PROCESS
    SEGMENT: ?PR?_WRITE_AS5048?AS5048

*** WARNING L16: UNCALLED SEGMENT, IGNORED FOR OVERLAY PROCESS
    SEGMENT: ?PR?_READ_AS5048?AS5048

*** WARNING L16: UNCALLED SEGMENT, IGNORED FOR OVERLAY PROCESS
    SEGMENT: ?PR?_SWITCH_CTIMER?FU68XX_CTIMER

*** WARNING L16: UNCALLED SEGMENT, IGNORED FOR OVERLAY PROCESS
    SEGMENT: ?PR?_SENDRECEIVE_BYTE_SPI?FU68XX_SPI

*** WARNING L16: UNCALLED SEGMENT, IGNORED FOR OVERLAY PROCESS
    SEGMENT: ?PR?_SENDRECEIVE_BYTES_SPI?FU68XX_SPI

*** WARNING L16: UNCALLED SEGMENT, IGNORED FOR OVERLAY PROCESS
    SEGMENT: ?PR?_SEND_UART?FU68XX_UART

*** WARNING L16: UNCALLED SEGMENT, IGNORED FOR OVERLAY PROCESS
    SEGMENT: ?PR?CALIBRATE_FOC?FU68XX_FOC

Program Size: data=66.5 xdata=0 code=2401
LINK/LOCATE RUN COMPLETE.  7 WARNING(S),  0 ERROR(S)
